(dp1
S'body'
p2
(dp3
S'length'
p4
I32768
sS'unique'
p5
I00
sS'sortable'
p6
I7
sS'sql'
p7
S'TEXT'
p8
sS'notnull'
p9
I00
sS'type'
p10
S'text'
p11
ssS'no_ans'
p12
(dp13
g4
I512
sg5
I00
sg6
I3
sg7
S'CHAR(512)'
p14
sg9
I00
sg10
S'string'
p15
ssS'author'
p16
(dp17
g4
I512
sg5
I00
sg6
I5
sg7
S'CHAR(512)'
p18
sg9
I00
sg10
g15
ssS'timestamp'
p19
(dp20
g4
I512
sg5
I00
sg6
I8
sg7
S'TIMESTAMP'
p21
sg9
I00
sg10
S'datetime'
p22
ssS'title'
p23
(dp24
g4
I512
sg5
I00
sg6
I2
sg7
S'CHAR(512)'
p25
sg9
I00
sg10
g15
<<<<<<< HEAD
ssS'email'
p23
(dp24
=======
ssS'id'
p26
(dp27
>>>>>>> 14de18e388604728e957a5863dcf97624695fb1c
g4
I512
sg5
I00
sg6
I5
sg7
<<<<<<< HEAD
S'CHAR(512)'
p25
sg9
I00
sg10
g15
ssS'likes'
p26
(dp27
S'sortable'
p28
I8
sS'sql'
p29
S'CHAR(512)'
p30
sS'length'
p31
I512
sS'notnull'
p32
I00
sS'unique'
p33
I00
sS'type'
p34
S'string'
p35
ssS'file'
p36
(dp37
=======
S'INTEGER PRIMARY KEY AUTOINCREMENT'
p28
sg9
I00
sg10
S'id'
p29
ssS'likes'
p30
(dp31
S'sortable'
p32
I8
sS'sql'
p33
S'CHAR(512)'
p34
sS'length'
p35
I512
sS'notnull'
p36
I00
sS'unique'
p37
I00
sS'type'
p38
S'string'
p39
ssS'file'
p40
(dp41
>>>>>>> 14de18e388604728e957a5863dcf97624695fb1c
g4
I512
sg5
I00
sg6
I4
sg7
S'CHAR(512)'
<<<<<<< HEAD
p38
=======
p42
>>>>>>> 14de18e388604728e957a5863dcf97624695fb1c
sg9
I00
sg10
S'upload'
<<<<<<< HEAD
p39
ssS'id'
p40
(dp41
=======
p43
ssS'email'
p44
(dp45
>>>>>>> 14de18e388604728e957a5863dcf97624695fb1c
g4
I512
sg5
I00
sg6
<<<<<<< HEAD
I1
sg7
S'INTEGER PRIMARY KEY AUTOINCREMENT'
p42
=======
I6
sg7
S'CHAR(512)'
p46
>>>>>>> 14de18e388604728e957a5863dcf97624695fb1c
sg9
I00
sg10
S'id'
p43
ss.