(dp1
S'body'
p2
(dp3
S'length'
p4
I32768
sS'unique'
p5
I00
sS'sortable'
p6
I7
sS'sql'
p7
S'TEXT'
p8
sS'notnull'
p9
I00
sS'type'
p10
S'text'
p11
ssS'no_ans'
p12
(dp13
g4
I512
sg5
I00
sg6
I3
sg7
S'CHAR(512)'
p14
sg9
I00
sg10
S'string'
p15
ssS'anonymous'
p16
(dp17
g4
I512
sg5
I00
sg6
I8
sg7
S'CHAR(1)'
p18
sg9
I00
sg10
S'boolean'
p19
ssS'author'
p20
(dp21
g4
I512
sg5
I00
sg6
I5
sg7
S'CHAR(512)'
p22
sg9
I00
sg10
g15
ssS'timestamp'
p23
(dp24
g4
I512
sg5
I00
sg6
I9
sg7
S'TIMESTAMP'
p25
sg9
I00
sg10
S'datetime'
p26
ssS'title'
p27
(dp28
g4
I512
sg5
I00
sg6
I2
sg7
S'TEXT'
p29
sg9
I00
sg10
<<<<<<< HEAD
g15
ssS'email'
=======
S'list:string'
>>>>>>> 93309319231b2dc5b6b643a27e9fffb372d93613
p30
ssS'email'
p31
(dp32
g4
I512
sg5
I00
sg6
I6
sg7
S'CHAR(512)'
<<<<<<< HEAD
p32
=======
p33
>>>>>>> 93309319231b2dc5b6b643a27e9fffb372d93613
sg9
I00
sg10
g15
ssS'likes'
p33
(dp34
S'sortable'
p35
I8
sS'sql'
p36
S'CHAR(512)'
p37
sS'length'
p38
I512
sS'notnull'
p39
I00
sS'unique'
p40
I00
sS'type'
p41
S'string'
p42
ssS'file'
p43
<<<<<<< HEAD
(dp44
=======
ssS'file'
p44
(dp45
>>>>>>> 93309319231b2dc5b6b643a27e9fffb372d93613
g4
I512
sg5
I00
sg6
I4
sg7
S'CHAR(512)'
<<<<<<< HEAD
p45
=======
p46
>>>>>>> 93309319231b2dc5b6b643a27e9fffb372d93613
sg9
I00
sg10
S'upload'
<<<<<<< HEAD
p46
ssS'id'
p47
(dp48
=======
p47
ssS'id'
p48
(dp49
>>>>>>> 93309319231b2dc5b6b643a27e9fffb372d93613
g4
I512
sg5
I00
sg6
I1
sg7
S'INTEGER PRIMARY KEY AUTOINCREMENT'
<<<<<<< HEAD
p49
=======
p50
>>>>>>> 93309319231b2dc5b6b643a27e9fffb372d93613
sg9
I00
sg10
S'id'
<<<<<<< HEAD
p50
=======
p51
>>>>>>> 93309319231b2dc5b6b643a27e9fffb372d93613
ss.