(dp1
S'output'
p2
S"<type 'exceptions.NameError'> global name 'title' is not defined"
p3
sS'layer'
p4
S'/home/abhijith/Documents/iiit/itws/Python/web2py/applications/QuestionAnswer/controllers/default.py'
p5
sS'code'
p6
S'# -*- coding: utf-8 -*-\n# this file is released under public domain and you can use without limitations\n\n#########################################################################\n## This is a sample controller\n## - index is the default action of any application\n## - user is required for authentication and authorization\n## - download is for downloading files uploaded in the db (does streaming)\n#########################################################################\n\ndef index():\n    """\n    example action using the internationalization operator T and flash\n    rendered by views/default/index.html or views/generic.html\n\n    if you need a simple wiki simply replace the two lines below with:\n    return auth.wiki()\n    """\n    response.flash = T("Helloooo!!")\n    return dict(message=T(\'Welcome to Learn2Cook!\'))\n\n@auth.requires_login()\ndef homepage():\n    totalrecs = db(db.question.id>0).count()  # number of records in table (for example)\n    showlines = 25    # number of records per page\n    if len(request.args):\n       page=int(request.args[0])\n    else:\n       page=0\n    images=db(db.question.id>0).select(limitby=(page,page+showlines),orderby=~db.question.timestamp)\n    \n    backward=A(\'<< previous\',_href=URL(r=request,args=[page-showlines])) if page else \'<< previous\'\n    forward=A(\'next >>\',_href=URL(r=request,args=[page+showlines])) if totalrecs>page+showlines else \'next >>\'\n    nav= "Showing %d to %d out of %d records"  % (page+1, page+len(images), totalrecs)\n    return dict(images=images,backward=backward,forward=forward, nav=nav)\n\n@auth.requires_login()   \ndef show():\n    image = db.question(request.args(0,cast=int)) or redirect(URL(\'index\'))\n    db.answer.question_id.default = image.id\n    form = SQLFORM(db.answer)\n    form.vars.question_id=image.id\n    form.vars.author=auth.user.first_name\n    form.vars.email=auth.user.email\n    form.vars.likes=0\n    \n    usr=db1(db1.auth_user.email==auth.user.email).select().first()\n    if form.process().accepted:\n        response.flash = \'Your answer is posted!\'\n        new_ans=int(image.no_ans)+1\n        image.no_ans=new_ans\n        image.update_record()\n        \n        \n#         ans=int(usr.no_ans)+1\n#         usr.no_ans=ans\n#         usr.update_record()\n#         response.flash(usr.no_ans)\n        \n        \n        \n    commentss = db(db.answer.question_id==image.id).select()\n#     likess=db((db.likes.post_id==image.id) & (db.likes.liker==auth.user.email)).count()\n    likess=db((db.likes.question_id==image.id) & (db.likes.liker==auth.user.email)).select()\n    return dict(image=image, commentss=commentss, likess=likess, form=form)\n\n\n\n@auth.requires_login()\ndef uploadpage():\n    form=SQLFORM(db.question)\n    form.vars.author=auth.user.first_name\n    form.vars.email=auth.user.email\n    form.add_button(\'Back\', URL(\'homepage\'))\n    \n    if form.process().accepted:\n        response.flash="Your question is posted!"\n        redirect(URL(\'default\',\'homepage\'))\n    return dict(form=form)\n\n\n@auth.requires_login()\ndef search():\n    response.flash=BEAUTIFY(request.vars)\n    \n    dropdown=request.vars.dropdown\n    textbox=request.vars.textbox\n    \n    images=db(db.question.title == textbox).select().first()\n    \n#     db.question.title.widget = SQLFORM.widgets.autocomplete(request, db.question.title , limitby=(0,10), min_length=2)\n#     db.question.body.writable = db.question.body.readable = False\n#     db.question.file.writable= db.question.file.readable= False\n#     db.question.anonymous.writable= db.question.anonymous.readable= False\n#     form=SQLFORM(db.question)\n#     title=request.vars.title\n#     \n#         tit=\'%\'+str(title)+\'%\'\n#         images=db(db.question.title.like(tit, case_sensitive=False)).select()\n\n#         return dict(form=form, images=images)\n\n#     else:\n#         return dict(form = form, images="")\n    if title:\n        return dict(images=images)\n    else:\n        return dict(images="")\n\n@auth.requires_login()\ndef myquestions():\n    \n    totalrecs = db(db.question.email==auth.user.email).count()  # number of records in table (for example)\n    showlines = 5    # number of records per page\n\n    if len(request.args):\n       page=int(request.args[0])\n    else:\n       page=0\n    rows=db(db.question.id>0 and db.question.email==auth.user.email).select(limitby=(page,page+showlines),orderby=~db.question.timestamp)\n    backward=A(\'<< previous\',_href=URL(r=request,args=[page-showlines])) if page else \'<< previous\'\n    forward=A(\'next >>\',_href=URL(r=request,args=[page+showlines])) if totalrecs>page+showlines else \'next >>\'\n    nav= "Showing %d to %d out of %d records"  % (page+1, page+len(rows), totalrecs)\n    return dict(rows=rows,backward=backward,forward=forward, nav=nav)\n\n@auth.requires_login()\ndef like():\n    image = db(db.answer.id==request.vars.id).select().first()\n    ques=db(db.question.id==image.question_id).select().first()\n    liked=db((db.likes.ans_id==image.id) & (db.likes.liker==auth.user.email)).select().first()\n   \n    if  liked and int(liked.upordown)==-1:\n        new_likes=int(image.likes)+2\n        image.likes=new_likes\n        image.update_record()\n        rec=db((db.likes.ans_id==image.id) & (db.likes.liker==auth.user.email)).select().first()\n        rec.upordown=1\n        rec.update_record()\n    \n    elif liked and int(liked.upordown)==1:\n        new_likes=int(image.likes)-1;\n        image.likes=new_likes;\n        image.update_record()\n        db((db.likes.ans_id==image.id) & (db.likes.liker==auth.user.email)).delete()\n        \n    else:\n        new_likes=int(image.likes)+1\n        image.likes=new_likes\n        image.update_record()\n        db.likes.insert(question_id=ques.id,ans_id=image.id,liker=auth.user.email,upordown=1)\n        \n    return str(image.likes)+" Likes"\n\n@auth.requires_login()\ndef dislike():\n    image = db(db.answer.id==request.vars.id).select().first()\n    ques=db(db.question.id==image.question_id).select().first()\n    liked=db((db.likes.ans_id==image.id) & (db.likes.liker==auth.user.email)).select().first()\n   \n    if  liked and int(liked.upordown)==1:\n        new_likes=int(image.likes)-2\n        image.likes=new_likes\n        image.update_record()\n        rec=db((db.likes.ans_id==image.id) & (db.likes.liker==auth.user.email)).select().first()\n        rec.upordown=-1\n        rec.update_record()\n        \n    elif liked and int(liked.upordown)==-1:\n        new_likes=int(image.likes)+1;\n        image.likes=new_likes;\n        image.update_record()\n        db((db.likes.ans_id==image.id) & (db.likes.liker==auth.user.email)).delete()\n        \n    else:\n        new_likes=int(image.likes)-1\n        image.likes=new_likes\n        image.update_record()\n        db.likes.insert(question_id=ques.id,ans_id=image.id,liker=auth.user.email,upordown=-1)\n    return str(image.likes)+" Likes"\n\n@auth.requires_login()\ndef edit():\n    image = db.question(request.args(0,cast=int)) or redirect(URL(\'index\'))\n    form = SQLFORM(db.question,image)\n    if form.process().accepted:\n        response.flash = \'Your question is edited!\'\n    return dict(image=image, form=form)\n    \n    \n@auth.requires_login()\ndef dele():\n    remove = db(db.question.id==request.vars.id).delete()\n    response.flash="Deleted " \n    return (T("Deleted"))\n#     redirect(URL(\'default\',\'myrecipes\'),client_side=True,extension=False,type=\'auto\')\n\n\n@auth.requires_membership("user_7")\ndef manage():\n    grid = SQLFORM.smartgrid(db1.auth_user,linked_tables=[\'auth_user\'])\n    return dict(grid=grid)\n    \n@auth.requires_membership("user_7")\ndef managequestions():\n    grid = SQLFORM.smartgrid(db.question,linked_tables=[\'question\'])\n    return dict(grid=grid)\n    \n\ndef user():\n    """\n    exposes:\n    http://..../[app]/default/user/login\n    http://..../[app]/default/user/logout\n    http://..../[app]/default/user/register\n    http://..../[app]/default/user/profile\n    http://..../[app]/default/user/retrieve_password\n    http://..../[app]/default/user/change_password\n    http://..../[app]/default/user/bulk_register\n    use @auth.requires_login()\n        @auth.requires_membership(\'group name\')\n        @auth.requires_permission(\'read\',\'table name\',record_id)\n    to decorate functions that need access control\n    also notice there is http://..../[app]/appadmin/manage/auth to allow administrator to manage users\n    """\n    return dict(form=auth())\n\n\n@cache.action()\ndef download():\n    """\n    allows downloading of uploaded files\n    http://..../[app]/default/download/[filename]\n    """\n    return response.download(request, db)\n\n\ndef call():\n    """\n    exposes services. for example:\n    http://..../[app]/default/call/jsonrpc\n    decorate with @services.jsonrpc the functions to expose\n    supports xml, json, xmlrpc, jsonrpc, amfrpc, rss, csv\n    """\n    return service()\n\nresponse._vars=response._caller(search)\n'
p7
sS'snapshot'
p8
(dp9
sS'traceback'
p10
S'Traceback (most recent call last):\n  File "/home/abhijith/Documents/iiit/itws/Python/web2py/gluon/restricted.py", line 227, in restricted\n    exec ccode in environment\n  File "/home/abhijith/Documents/iiit/itws/Python/web2py/applications/QuestionAnswer/controllers/default.py", line 246, in <module>\n  File "/home/abhijith/Documents/iiit/itws/Python/web2py/gluon/globals.py", line 412, in <lambda>\n    self._caller = lambda f: f()\n  File "/home/abhijith/Documents/iiit/itws/Python/web2py/gluon/tools.py", line 4236, in f\n    return action(*a, **b)\n  File "/home/abhijith/Documents/iiit/itws/Python/web2py/applications/QuestionAnswer/controllers/default.py", line 105, in search\n    if title:\nNameError: global name \'title\' is not defined\n'
p11
s.