(dp1
S'output'
p2
S"<type 'exceptions.AttributeError'> "
p3
sS'layer'
p4
S'/home/sreya/Documents/iiit/itws2/web2py/applications/QuestionAnswer/views/default/show.html'
p5
sS'code'
p6
S'response.write(\'<!DOCTYPE html>\\n<!--[if (gt IE 9)|!(IE)]><!--> <html class="no-js" lang="\', escape=False)\nresponse.write(T.accepted_language or \'en\')\nresponse.write(\'"> <!--<![endif]-->\\n  <head>\\n    <meta charset="utf-8">\\n    <!-- www.phpied.com/conditional-comments-block-downloads/ -->\\n    <!-- Always force latest IE rendering engine\\n         (even in intranet) & Chrome Frame\\n         Remove this if you use the .htaccess -->\\n    <meta http-equiv="X-UA-Compatible" content="IE=edge\', escape=False)\nresponse.write(not request.is_local and \',chrome=1\' or \'\')\nresponse.write(\'">\\n    <!--  Mobile Viewport Fix\\n          j.mp/mobileviewport & davidbcalhoun.com/2010/viewport-metatag\\n          device-width: Occupy full width of the screen in its current orientation\\n          initial-scale = 1.0 retains dimensions instead of zooming out if page height > device height\\n          user-scalable = yes allows the user to zoom in -->\\n    <meta name="viewport" content="width=device-width, initial-scale=1.0">\\n    <title>\', escape=False)\nresponse.write(response.title or request.application)\nresponse.write(\'</title>\\n    <!-- http://dev.w3.org/html5/markup/meta.name.html -->\\n    <meta name="application-name" content="\', escape=False)\nresponse.write(request.application)\nresponse.write(\'">\\n    <!-- Speaking of Google, don\\\'t forget to set your site up:\\n         http://google.com/webmasters -->\\n    <meta name="google-site-verification" content="">\\n    <!-- include stylesheets -->\\n    <link rel="stylesheet" href="\', escape=False)\nresponse.write(URL(\'static\',\'css/bootstrap.min.css\'))\nresponse.write(\'"/>\\n    <link rel="stylesheet" href="\', escape=False)\nresponse.write(URL(\'static\',\'css/web2py-bootstrap3.css\'))\nresponse.write(\'"/>\\n    <link rel="shortcut icon" href="\', escape=False)\nresponse.write(URL(\'static\',\'images/favicon.ico\'))\nresponse.write(\'" type="image/x-icon">\\n    <link rel="apple-touch-icon" href="\', escape=False)\nresponse.write(URL(\'static\',\'images/favicon.png\'))\nresponse.write(\'">\\n    <!-- All JavaScript at the bottom, except for Modernizr which enables\\n         HTML5 elements & feature detects -->\\n    <script src="\', escape=False)\nresponse.write(URL(\'static\',\'js/modernizr-2.8.3.min.js\'))\nresponse.write(\'"></script>\\n    <!--[if lt IE 9]>\\n        <script src="\', escape=False)\nresponse.write(URL(\'static\',\'js/respond-1.4.2.min.js\'))\nresponse.write(\'"></script>\\n        <![endif]-->\\n    <!-- Favicons -->\\n    \', escape=False)\nresponse.write(\'<script type="text/javascript"><!--\\n    // These variables are used by the web2py_ajax_init function in web2py_ajax.js (which is loaded below).\\n    var w2p_ajax_confirm_message = "\', escape=False)\nresponse.write(T(\'Are you sure you want to delete this object?\'))\nresponse.write(\'";\\n    var w2p_ajax_disable_with_message = "\', escape=False)\nresponse.write(T(\'Working...\'))\nresponse.write(\'";\\n    var w2p_ajax_date_format = "\', escape=False)\nresponse.write(T(\'%Y-%m-%d\'))\nresponse.write(\'";\\n    var w2p_ajax_datetime_format = "\', escape=False)\nresponse.write(T(\'%Y-%m-%d %H:%M:%S\'))\nresponse.write(\'";\\n    var ajax_error_500 = \\\'\', escape=False)\nresponse.write(T.M(\'An error occured, please [[reload %s]] the page\') % URL(args=request.args, vars=request.get_vars))\nresponse.write("\'\\n    //--></script>\\n", escape=False)\nresponse.files.insert(0,URL(\'static\',\'js/jquery.js\'))\nresponse.files.insert(1,URL(\'static\',\'css/calendar.css\'))\nresponse.files.insert(2,URL(\'static\',\'js/calendar.js\'))\nresponse.files.insert(3,URL(\'static\',\'js/web2py.js\'))\nresponse.include_meta()\nresponse.include_files()\nresponse.write(\'\\n\', escape=False)\nresponse.write(\' <!-- this includes jquery.js, calendar.js/.css and web2py.js -->\\n    \', escape=False)\nresponse.write(\'\\n    \', escape=False)\n# using sidebars need to know what sidebar you want to use\nmc0 = \'col-md-12\'\nmc1 = \'col-md-9\'\nmc2 = \'col-md-6\'\nleft_sidebar_enabled = globals().get(\'left_sidebar_enabled\', False)\nright_sidebar_enabled = globals().get(\'right_sidebar_enabled\', False)\nmiddle_column = {0: mc0, 1: mc1, 2: mc2}[\n(left_sidebar_enabled and 1 or 0)+(right_sidebar_enabled and 1 or 0)]\nresponse.write(\'\\n  </head>\\n  <body>\\n    <!--[if lt IE 8]><p class="browserupgrade">You are using an <strong>outdated</strong> browser. Please <a href="http://browsehappy.com/">upgrade your browser</a> to improve your experience.</p><![endif]-->\\n    \\n    <!-- Navbar ======================================= -->\\n    <nav class="navbar navbar-default navbar-fixed-top" role="navigation">\\n      <div class="container-fluid">\\n        <div class="navbar-header">\\n          <button type="button" class="navbar-toggle" data-toggle="collapse" data-target=".navbar-collapse">\\n            <span class="sr-only">Toggle navigation</span>\\n            <span class="icon-bar"></span>\\n            <span class="icon-bar"></span>\\n            <span class="icon-bar"></span>\\n          </button>\\n          \', escape=False)\nresponse.write(response.logo or \'\')\nresponse.write(\'\\n        </div>\\n        <div class="collapse navbar-collapse navbar-ex1-collapse">\\n          <ul class="nav navbar-nav navbar-right">\\n            \', escape=False)\nresponse.write(\'auth\' in globals() and auth.navbar(\'Welcome\',mode=\'dropdown\') or \'\')\nresponse.write(\'\\n          </ul>\\n          \', escape=False)\nif response.menu:\n    response.write(\'\\n          \', escape=False)\n    response.write(MENU(response.menu, _class=\'nav navbar-nav\',li_class=\'dropdown\',ul_class=\'dropdown-menu\'))\n    response.write(\'\\n          \', escape=False)\n    pass\nresponse.write(\'\\n        </div>\\n      </div>\\n    </nav>\\n    <!-- Masthead ===================================== -->    \\n    \', escape=False)\nresponse.write(\'\\n    \', escape=False)\nresponse.write(\'\\n    <!-- Main ========================================= -->\\n    <!-- Begin page content -->\\n    <div class="container-fluid main-container">\\n      \', escape=False)\nif left_sidebar_enabled:\n    response.write(\'\\n        <div class="col-md-3 left-sidebar">\\n            \', escape=False)\n    response.write(\'\\n            <h3>Left Sidebar</h3>\\n            <p></p>\\n            \', escape=False)\n    response.write(\'\\n        </div>\\n      \', escape=False)\n    pass\nresponse.write(\'\\n\\n      <div class="\', escape=False)\nresponse.write(middle_column)\nresponse.write(\'">\\n        \', escape=False)\nresponse.write(\'\\n        \', escape=False)\nresponse.write(\'\\n<link rel="stylesheet" href="http://cdnjs.cloudflare.com/ajax/libs/font-awesome/4.4.0/css/font-awesome.min.css">\\n<style>\\n/**\\n * Oscuro: #283035\\n * Azul: #03658c\\n * Detalle: #c7cacb\\n * Fondo: #dee1e3\\n ----------------------------------*/\\n\\n * {\\n    margin: 0;\\n    padding: 0;\\n    -webkit-box-sizing: border-box;\\n    -moz-box-sizing: border-box;\\n    box-sizing: border-box;\\n }\\n\\n a {\\n    color: #03658c;\\n    text-decoration: none;\\n }\\n\\nul {\\n    list-style-type: none;\\n}\\n\\nbody {\\n    font-family: \\\'Roboto\\\', Arial, Helvetica, Sans-serif, Verdana;\\n    background-image:url("../../static/images/pp.jpg");\\n    background-size:100% 100%;\\n}\\n\\n/** ====================\\n * Lista de Comentarios\\n =======================*/\\n.comments-container {\\n    margin: 60px auto 15px;\\n    width: 768px;\\n}\\n\\n.comments-container h1 {\\n    font-size: 36px;\\n    color: #283035;\\n    font-weight: 400;\\n}\\n\\n.comments-container h1 a {\\n    font-size: 18px;\\n    font-weight: 700;\\n}\\n\\n.comments-list {\\n    margin-top: 30px;\\n    position: relative;\\n}\\n\\n/**\\n * Lineas / Detalles\\n -----------------------*/\\n.comments-list:before {\\n    content: \\\'\\\';\\n    width: 2px;\\n    height: 100%;\\n    background: #c7cacb;\\n    position: absolute;\\n    left: 32px;\\n    top: 0;\\n}\\n\\n.comments-list:after {\\n    content: \\\'\\\';\\n    position: absolute;\\n    background: #c7cacb;\\n    bottom: 0;\\n    left: 27px;\\n    width: 7px;\\n    height: 7px;\\n    border: 3px solid #dee1e3;\\n    -webkit-border-radius: 50%;\\n    -moz-border-radius: 50%;\\n    border-radius: 50%;\\n}\\n\\n.comments-list li {\\n    margin-bottom: 15px;\\n    display: block;\\n    position: relative;\\n}\\n\\n.comments-list li:after {\\n    content: \\\'\\\';\\n    display: block;\\n    clear: both;\\n    height: 0;\\n    width: 0;\\n}\\n\\n.comments-list .comment-avatar {\\n    width: 65px;\\n    height: 65px;\\n    position: relative;\\n    z-index: 99;\\n    float: left;\\n    border: 3px solid #FFF;\\n    -webkit-border-radius: 4px;\\n    -moz-border-radius: 4px;\\n    border-radius: 4px;\\n    -webkit-box-shadow: 0 1px 2px rgba(0,0,0,0.2);\\n    -moz-box-shadow: 0 1px 2px rgba(0,0,0,0.2);\\n    box-shadow: 0 1px 2px rgba(0,0,0,0.2);\\n    overflow: hidden;\\n}\\n\\n.comments-list .comment-avatar img {\\n    width: 100%;\\n    height: 100%;\\n}\\n\\n.reply-list .comment-avatar {\\n    width: 50px;\\n    height: 50px;\\n}\\n\\n.comment-main-level:after {\\n    content: \\\'\\\';\\n    width: 0;\\n    height: 0;\\n    display: block;\\n    clear: both;\\n}\\n\\n.comments-list .comment-box {\\n    width: 680px;\\n    float: right;\\n    position: relative;\\n    -webkit-box-shadow: 0 1px 1px rgba(0,0,0,0.15);\\n    -moz-box-shadow: 0 1px 1px rgba(0,0,0,0.15);\\n    box-shadow: 0 1px 1px rgba(0,0,0,0.15);\\n}\\n\\n.comments-list .comment-box:before, .comments-list .comment-box:after {\\n    content: \\\'\\\';\\n    height: 0;\\n    width: 0;\\n    position: absolute;\\n    display: block;\\n    border-width: 10px 12px 10px 0;\\n    border-style: solid;\\n    border-color: transparent #FCFCFC;\\n    top: 8px;\\n    left: -11px;\\n}\\n\\n.comments-list .comment-box:before {\\n    border-width: 11px 13px 11px 0;\\n    border-color: transparent rgba(0,0,0,0.05);\\n    left: -12px;\\n}\\n\\n.comment-box .comment-head {\\n    background: #FCFCFC;\\n    padding: 10px 12px;\\n    border-bottom: 1px solid #E5E5E5;\\n    overflow: hidden;\\n    -webkit-border-radius: 4px 4px 0 0;\\n    -moz-border-radius: 4px 4px 0 0;\\n    border-radius: 4px 4px 0 0;\\n}\\n\\n.comment-box .comment-head i {\\n    float: right;\\n    margin-left: 14px;\\n    position: relative;\\n    top: 2px;\\n    color: #A6A6A6;\\n    cursor: pointer;\\n    -webkit-transition: color 0.3s ease;\\n    -o-transition: color 0.3s ease;\\n    transition: color 0.3s ease;\\n}\\n\\n.comment-box .comment-head i:hover {\\n    color: #03658c;\\n}\\n\\n.comment-box .comment-name {\\n    color: #283035;\\n    font-size: 14px;\\n    font-weight: 700;\\n    float: left;\\n    margin-right: 10px;\\n}\\n\\n.comment-box .comment-name a {\\n    color: #283035;\\n}\\n\\n.comment-box .comment-head span {\\n    float: left;\\n    color: #999;\\n    font-size: 13px;\\n    position: relative;\\n    top: 1px;\\n}\\n\\n.comment-box .comment-content {\\n    background: #FFF;\\n    padding: 12px;\\n    font-size: 15px;\\n    color: #595959;\\n    -webkit-border-radius: 0 0 4px 4px;\\n    -moz-border-radius: 0 0 4px 4px;\\n    border-radius: 0 0 4px 4px;\\n}\\n\\n.comment-box .comment-name.by-author, .comment-box .comment-name.by-author a {color: #03658c;}\\n.comment-box .comment-name.by-author:after {\\n    content: \\\'autor\\\';\\n    background: #03658c;\\n    color: #FFF;\\n    font-size: 12px;\\n    padding: 3px 5px;\\n    font-weight: 700;\\n    margin-left: 10px;\\n    -webkit-border-radius: 3px;\\n    -moz-border-radius: 3px;\\n    border-radius: 3px;\\n}\\n\\n@media only screen and (max-width: 766px) {\\n    .comments-container {\\n        width: 480px;\\n    }\\n\\n    .comments-list .comment-box {\\n        width: 390px;\\n    }\\n\\n    .reply-list .comment-box {\\n        width: 320px;\\n    }\\n}\\n</style>\\n\\n<form><input type="hidden" id="id" name="id" value="" /></form>\\n<div style="text-align:right;">\\n\', escape=False)\nif starss:\n    response.write(\'\\n    <button id="starring" onclick="star(\\\'\', escape=False)\n    response.write(image.id)\n    response.write(\'\\\'); change();"><i class="fa fa-star" style="font-size:24px"></i></button>\\n\', escape=False)\nelse:\n    response.write(\'\\n    <button id="starring" onclick="star(\\\'\', escape=False)\n    response.write(image.id)\n    response.write(\'\\\'); change();"><i class="fa fa-star-o" style="font-size:24px"></i></button>\\n\', escape=False)\n    pass\nresponse.write(\'\\n</div>\\n<div id="temp"></div>\\n<h3>\\n    Tags:\\n</h3>\\n\', escape=False)\nfor tag in image.title:\n    response.write(\'\\n<span style="font-weight:bold; font-size:120%; border-radius:8%;" class="text-primary bg-info">\', escape=False)\n    response.write(tag)\n    response.write(\'</span>\\n\', escape=False)\n    pass\nresponse.write(\'\\n\', escape=False)\nif image.anonymous==True:\n    response.write(\'\\n<h3>Asked by: Anonymous</h3>\\n\', escape=False)\nelse:\n    response.write(\'\\n\', escape=False)\n    if image.file:\n        response.write(\'\\n<div style="text-align:center">\\n<img class="img-responsive img-rounded" width="500px"\\n     src="\', escape=False)\n        response.write(URL(\'download\', args=image.file))\n        response.write(\'" />\\n</div>\\n\', escape=False)\n        pass\n    response.write(\'\\n<br>\\n<div class="container">\\n    <h3>Question: </h3>\\n    <div class="jumbotron">\\n<h3>\', escape=False)\n    response.write(image.body)\n    response.write(\'</h3>\\n    </div>\\n</div>\\n<div class="container">\\n    <div class="jumbotron">\\n        <h3>Asked by: \', escape=False)\n    response.write(image.author)\n    response.write(\'</h3>\\n\', escape=False)\n    pass\nresponse.write(\'\\n<small>\', escape=False)\nresponse.write(image.timestamp.date())\nresponse.write(\'</small>\\n    </div></div>\\n\', escape=False)\nif len(views):\n    response.write(\'\\n\\n<div>\\n    \', escape=False)\n    for view in views:\n        response.write(\'\\n    <div class="container">\\n        <h3>\\n            Review\\n        </h3>\\n        <blockquote class="blockquote">\\n            \', escape=False)\n        response.write(view.view)\n        response.write(\'\\n            <footer>Expert</footer>\\n        </blockquote>\\n    </div>\\n    \', escape=False)\n        pass\n    response.write(\'\\n    </div>\\n\', escape=False)\n    pass\nresponse.write(\'\\n\\n\', escape=False)\nif len(commentss):\n    response.write(\'\\n<div class="comments-container">\\n        <h1>Answers</h1>\\n        <ul id="comments-list" class="comments-list">\\n                      \', escape=False)\n    for posts in commentss:\n        response.write(\'\\n            <li>\\n                <div class="comment-main-level">\\n                    <!-- Avatar -->\\n                    \', escape=False)\n        for users in usr:\n            response.write(\'\\n                                \', escape=False)\n            if posts.email==users.email:\n                response.write(\'\\n                    <div class="comment-avatar"><img src="\', escape=False)\n                response.write(URL(\'download\', args=users.dp))\n                response.write(\'" alt=""></div>\\n                    \', escape=False)\n                pass\n            response.write(\'\\n                    \', escape=False)\n            pass\n        response.write(\'\\n                    <!-- Contenedor del Comentario -->\\n                    <div class="comment-box">\\n                        <div class="comment-head">\\n                            <h6 class="comment-name">\', escape=False)\n        response.write(posts.author)\n        response.write(\' \\n                               \', escape=False)\n        for users in usr:\n            response.write(\'\\n                                \', escape=False)\n            if posts.email==users.email:\n                response.write(\'\\n                                \', escape=False)\n                if users.badge=="Gold":\n                    response.write(\'\\n                                    <img style="width:20px" src="../../static/images/gold.jpeg"/>\\n                                \', escape=False)\n                elif users.badge=="Silver":\n                    response.write(\'\\n                                    <img style="width:20px" src="../../static/images/silver.jpeg"/>\\n                                \', escape=False)\n                elif users.badge=="Bronze":\n                    response.write(\'\\n                                    <img style="width:20px" src="../../static/images/bronze.jpeg"/>\\n                                \', escape=False)\n                else:\n                    response.write(\'\\n                                    <img style="width:20px" src="../../static/images/newbie.jpeg"/>\\n                                \', escape=False)\n                    pass\n                response.write(\'\\n                                \', escape=False)\n                pass\n            response.write(\'\\n                                \', escape=False)\n            pass\n        response.write(\'\\n                            </h6>\\n                        </div>\\n                        <div class="comment-content">\\n                           \', escape=False)\n        response.write(posts.body)\n        response.write(\'\\n\\n                        \', escape=False)\n        if posts.file:\n            response.write(\'\\n                        <div style="text-align:center">\\n                        <img class="img-responsive img-rounded" width="300px"\\n                             src="\', escape=False)\n            response.write(URL(\'download\', args=posts.file))\n            response.write(\'" />\\n                        </div>\\n                        \', escape=False)\n            pass\n        response.write(\'\\n                        </div>\\n                        \', escape=False)\n        flag=0\n        response.write(\'\\n                        \', escape=False)\n        for i in likess:\n            response.write(\'\\n                            \', escape=False)\n            if i.ans_id==posts.id and int(i.upordown)==1:\n                response.write(\'\\n                                \', escape=False)\n                flag=1\n                response.write(\'\\n                                <button class="label label-success" id="\', escape=False)\n                response.write(posts.id)\n                response.write(\'likepic" onclick="up(\\\'\', escape=False)\n                response.write(posts.id)\n                response.write("\'); change1(\'", escape=False)\n                response.write(posts.id)\n                response.write(\'\\\');">UPVOTED  <i class="fa fa-thumbs-up" style="font-size:24px"></i></button>\\n                                <button class="label label-danger" id="\', escape=False)\n                response.write(posts.id)\n                response.write(\'dislikepic" onclick="down(\\\'\', escape=False)\n                response.write(posts.id)\n                response.write("\'); change2(\'", escape=False)\n                response.write(posts.id)\n                response.write(\'\\\');">DOWNVOTE  <i class="fa fa-thumbs-down" style="font-size:24px"></i></button>\\n                            \', escape=False)\n            elif i.ans_id==posts.id and int(i.upordown)==-1:\n                response.write(\'\\n                            <button class="label label-success" id="\', escape=False)\n                response.write(posts.id)\n                response.write(\'likepic" onclick="up(\\\'\', escape=False)\n                response.write(posts.id)\n                response.write("\'); change1(\'", escape=False)\n                response.write(posts.id)\n                response.write(\'\\\');">UPVOTE  <i class="fa fa-thumbs-up" style="font-size:24px"></i></button>\\n                            <button class="label label-danger" id="\', escape=False)\n                response.write(posts.id)\n                response.write(\'dislikepic" onclick="down(\\\'\', escape=False)\n                response.write(posts.id)\n                response.write("\'); change2(\'", escape=False)\n                response.write(posts.id)\n                response.write(\'\\\');">DOWNVOTED  <i class="fa fa-thumbs-down" style="font-size:24px"></i></button>\\n                        \', escape=False)\n                flag=1\n                response.write(\'\\n                        \', escape=False)\n                pass\n            response.write(\'\\n                        \', escape=False)\n            pass\n        response.write(\'\\n                        \', escape=False)\n        if flag==0:\n            response.write(\'\\n                         <button class="label label-success" id="\', escape=False)\n            response.write(posts.id)\n            response.write(\'likepic" onclick="up(\\\'\', escape=False)\n            response.write(posts.id)\n            response.write("\'); change1(\'", escape=False)\n            response.write(posts.id)\n            response.write(\'\\\');">UPVOTE  <i class="fa fa-thumbs-up" style="font-size:24px"></i></button>\\n                         <button class="label label-danger" id="\', escape=False)\n            response.write(posts.id)\n            response.write(\'dislikepic" onclick="down(\\\'\', escape=False)\n            response.write(posts.id)\n            response.write("\'); change2(\'", escape=False)\n            response.write(posts.id)\n            response.write(\'\\\');">DOWNVOTE  <i class="fa fa-thumbs-down" style="font-size:24px"></i></button>\\n                        \', escape=False)\n            pass\n        response.write(\'\\n                        <span id="\', escape=False)\n        response.write(posts.id)\n        response.write(\'" class="badge" style="background-color:black;">\', escape=False)\n        response.write(posts.likes)\n        response.write(\'</span>\\n                    </div>\\n                </div>\\n            </li>\\n                     \', escape=False)\n        pass\n    response.write(\'\\n    </ul>\\n\\n\\n\', escape=False)\nelse:\n    response.write(\'\\n  <h2>No answers posted yet</h2>\\n\', escape=False)\n    pass\nresponse.write(\'\\n<h2>Answer the question</h2>\\n\', escape=False)\nresponse.write(form)\nresponse.write(\'\\n\\n\', escape=False)\nresponse.write("\\n    \\n    \\n<script>\\n    function up(idno)\\n    {\\n        jQuery(\'#id\').val(idno);\\n        ajax(\'", escape=False)\nresponse.write(URL(\'default\', \'like\'))\nresponse.write("\', [\'id\'], idno);\\n    }\\n    function down(idno)\\n    {\\n        jQuery(\'#id\').val(idno);\\n        ajax(\'", escape=False)\nresponse.write(URL(\'default\', \'dislike\'))\nresponse.write(\'\\\', [\\\'id\\\'], idno);\\n    }\\n    function change1(idno)\\n    {\\n        \\n        id1=idno+"likepic"\\n        id2=idno+"dislikepic"\\n        if(document.getElementById(id1).innerHTML==\\\'UPVOTE  <i class="fa fa-thumbs-up" style="font-size:24px"></i>\\\')\\n        {\\n            document.getElementById(id1).innerHTML=\\\'UPVOTED  <i class="fa fa-thumbs-up" style="font-size:24px"></i>\\\'\\n        }\\n        else if(document.getElementById(id1).innerHTML==\\\'UPVOTED  <i class="fa fa-thumbs-up" style="font-size:24px"></i>\\\')\\n        {\\n            document.getElementById(id1).innerHTML=\\\'UPVOTE  <i class="fa fa-thumbs-up" style="font-size:24px"></i>\\\'\\n        }\\n        if(document.getElementById(id2).innerHTML==\\\'DOWNVOTED  <i class="fa fa-thumbs-down" style="font-size:24px"></i>\\\')\\n        {\\n            document.getElementById(id2).innerHTML=\\\'DOWNVOTE  <i class="fa fa-thumbs-down" style="font-size:24px"></i>\\\'\\n        }\\n    }\\n    function change2(idno)\\n    {\\n        id1=idno+"likepic"\\n        id2=idno+"dislikepic"\\n        if(document.getElementById(id1).innerHTML==\\\'UPVOTED  <i class="fa fa-thumbs-up" style="font-size:24px"></i>\\\')\\n        {\\n            document.getElementById(id1).innerHTML=\\\'UPVOTE  <i class="fa fa-thumbs-up" style="font-size:24px"></i>\\\'\\n        }\\n        if(document.getElementById(id2).innerHTML==\\\'DOWNVOTE  <i class="fa fa-thumbs-down" style="font-size:24px"></i>\\\')\\n        {\\n            document.getElementById(id2).innerHTML=\\\'DOWNVOTED  <i class="fa fa-thumbs-down" style="font-size:24px"></i>\\\'\\n        }\\n        else if(document.getElementById(id2).innerHTML==\\\'DOWNVOTED  <i class="fa fa-thumbs-down" style="font-size:24px"></i>\\\')\\n        {\\n            document.getElementById(id2).innerHTML=\\\'DOWNVOTE  <i class="fa fa-thumbs-down" style="font-size:24px"></i>\\\'\\n        }\\n    }\\n    function star(idno)\\n    {\\n        jQuery(\\\'#id\\\').val(idno);\\n        ajax(\\\'\', escape=False)\nresponse.write(URL(\'default\', \'star\'))\nresponse.write(\'\\\', [\\\'id\\\'], temp);\\n    }\\n    function change()\\n    {\\n        if(document.getElementById("starring").innerHTML==\\\'<i class="fa fa-star" style="font-size:24px"></i>\\\')\\n        {\\n            document.getElementById("starring").innerHTML=\\\'<i class="fa fa-star-o" style="font-size:24px"></i>\\\'\\n        }\\n        else if(document.getElementById("starring").innerHTML==\\\'<i class="fa fa-star-o" style="font-size:24px"></i>\\\')\\n        {\\n            document.getElementById("starring").innerHTML=\\\'<i class="fa fa-star" style="font-size:24px"></i>\\\'\\n        }\\n    }\\n</script>\\n\', escape=False)\nresponse.write(\'\\n        \', escape=False)\nresponse.write(\'\\n      </div>\\n\\n      \', escape=False)\nif right_sidebar_enabled:\n    response.write(\'\\n        <div class="col-md-3">\\n            \', escape=False)\n    response.write(\'\\n            <h3>Right Sidebar</h3>\\n            <p></p>\\n            \', escape=False)\n    response.write(\'\\n        </div>\\n      \', escape=False)\n    pass\nresponse.write(\'\\n\\n    </div>\\n\\n    \', escape=False)\nresponse.write(\' <!-- this is default footer -->      \\n    <footer class="footer">\\n      <div class="container-fluid">\\n        <div class="copyright pull-left">\', escape=False)\nresponse.write(T(\'Copyright\'))\nresponse.write(\' &#169; \', escape=False)\nresponse.write(request.now.year)\nresponse.write(\'</div>\\n          <div id="poweredBy" class="pull-right">\\n            \', escape=False)\nresponse.write(T(\'Powered by\'))\nresponse.write(\'\\n            <a href="http://127.0.0.1:8000/QuestionAnswer/default/index">Ask&amp;Answer</a>\\n          </div>\\n      </div>\\n    </footer>\\n    \', escape=False)\nresponse.write(\'\\n    <!-- The javascript =============================== -->\\n    <script src="\', escape=False)\nresponse.write(URL(\'static\',\'js/bootstrap.min.js\'))\nresponse.write(\'"></script>\\n    <script src="\', escape=False)\nresponse.write(URL(\'static\',\'js/web2py-bootstrap3.js\'))\nresponse.write(\'"></script>\\n    \', escape=False)\nresponse.write(\'\\n    \', escape=False)\nif response.google_analytics_id:\n    response.write(\'\\n    <!-- Analytics ==================================== -->\\n    <script src="\', escape=False)\n    response.write(URL(\'static\',\'js/analytics.min.js\'))\n    response.write(\'"></script>\\n    <script type="text/javascript">\\n      analytics.initialize({\\n      \\\'Google Analytics\\\':{trackingId:\\\'\', escape=False)\n    response.write(response.google_analytics_id)\n    response.write("\'}\\n      });\\n    </script>\\n    ", escape=False)\n    pass\nresponse.write(\'\\n    <!-- Share ============================y============ -->\\n    <script src="\', escape=False)\nresponse.write(URL(\'static\',\'js/share.js\',vars=dict(static=URL(\'static\',\'images\'))))\nresponse.write(\'"></script>\\n  </body>\\n</html>\\n\', escape=False)'
p7
sS'snapshot'
p8
(dp9
sS'traceback'
p10
S'Traceback (most recent call last):\n  File "/home/sreya/Documents/iiit/itws2/web2py/gluon/restricted.py", line 227, in restricted\n    exec ccode in environment\n  File "/home/sreya/Documents/iiit/itws2/web2py/applications/QuestionAnswer/views/default/show.html", line 125, in <module>\n    .comment-main-level:after {\n  File "/home/sreya/Documents/iiit/itws2/web2py/gluon/packages/dal/pydal/objects.py", line 90, in __getattr__\n    raise AttributeError\nAttributeError\n'
p11
s.