(dp1
S'output'
p2
S'missing "pass" in view'
p3
sS'layer'
p4
S'ParserContainer'
p5
sS'code'
p6
S'response.write(\'<!DOCTYPE html>\\n<!--[if (gt IE 9)|!(IE)]><!--> <html class="no-js" lang="\', escape=False)\nresponse.write(T.accepted_language or \'en\')\nresponse.write(\'"> <!--<![endif]-->\\n  <head>\\n    <meta charset="utf-8">\\n    <!-- www.phpied.com/conditional-comments-block-downloads/ -->\\n    <!-- Always force latest IE rendering engine\\n         (even in intranet) & Chrome Frame\\n         Remove this if you use the .htaccess -->\\n    <meta http-equiv="X-UA-Compatible" content="IE=edge\', escape=False)\nresponse.write(not request.is_local and \',chrome=1\' or \'\')\nresponse.write(\'">\\n    <!--  Mobile Viewport Fix\\n          j.mp/mobileviewport & davidbcalhoun.com/2010/viewport-metatag\\n          device-width: Occupy full width of the screen in its current orientation\\n          initial-scale = 1.0 retains dimensions instead of zooming out if page height > device height\\n          user-scalable = yes allows the user to zoom in -->\\n    <meta name="viewport" content="width=device-width, initial-scale=1.0">\\n    <title>\', escape=False)\nresponse.write(response.title or request.application)\nresponse.write(\'</title>\\n    <!-- http://dev.w3.org/html5/markup/meta.name.html -->\\n    <meta name="application-name" content="\', escape=False)\nresponse.write(request.application)\nresponse.write(\'">\\n    <!-- Speaking of Google, don\\\'t forget to set your site up:\\n         http://google.com/webmasters -->\\n    <meta name="google-site-verification" content="">\\n    <!-- include stylesheets -->\\n    <link rel="stylesheet" href="\', escape=False)\nresponse.write(URL(\'static\',\'css/bootstrap.min.css\'))\nresponse.write(\'"/>\\n    <link rel="stylesheet" href="\', escape=False)\nresponse.write(URL(\'static\',\'css/web2py-bootstrap3.css\'))\nresponse.write(\'"/>\\n    <link rel="shortcut icon" href="\', escape=False)\nresponse.write(URL(\'static\',\'images/favicon.ico\'))\nresponse.write(\'" type="image/x-icon">\\n    <link rel="apple-touch-icon" href="\', escape=False)\nresponse.write(URL(\'static\',\'images/favicon.png\'))\nresponse.write(\'">\\n    <!-- All JavaScript at the bottom, except for Modernizr which enables\\n         HTML5 elements & feature detects -->\\n    <script src="\', escape=False)\nresponse.write(URL(\'static\',\'js/modernizr-2.8.3.min.js\'))\nresponse.write(\'"></script>\\n    <!--[if lt IE 9]>\\n        <script src="\', escape=False)\nresponse.write(URL(\'static\',\'js/respond-1.4.2.min.js\'))\nresponse.write(\'"></script>\\n        <![endif]-->\\n    <!-- Favicons -->\\n    \', escape=False)\nresponse.write(\'<script type="text/javascript"><!--\\n    // These variables are used by the web2py_ajax_init function in web2py_ajax.js (which is loaded below).\\n    var w2p_ajax_confirm_message = "\', escape=False)\nresponse.write(T(\'Are you sure you want to delete this object?\'))\nresponse.write(\'";\\n    var w2p_ajax_disable_with_message = "\', escape=False)\nresponse.write(T(\'Working...\'))\nresponse.write(\'";\\n    var w2p_ajax_date_format = "\', escape=False)\nresponse.write(T(\'%Y-%m-%d\'))\nresponse.write(\'";\\n    var w2p_ajax_datetime_format = "\', escape=False)\nresponse.write(T(\'%Y-%m-%d %H:%M:%S\'))\nresponse.write(\'";\\n    var ajax_error_500 = \\\'\', escape=False)\nresponse.write(T.M(\'An error occured, please [[reload %s]] the page\') % URL(args=request.args, vars=request.get_vars))\nresponse.write("\'\\n    //--></script>\\n", escape=False)\nresponse.files.insert(0,URL(\'static\',\'js/jquery.js\'))\nresponse.files.insert(1,URL(\'static\',\'css/calendar.css\'))\nresponse.files.insert(2,URL(\'static\',\'js/calendar.js\'))\nresponse.files.insert(3,URL(\'static\',\'js/web2py.js\'))\nresponse.include_meta()\nresponse.include_files()\nresponse.write(\'\\n\', escape=False)\nresponse.write(\' <!-- this includes jquery.js, calendar.js/.css and web2py.js -->\\n    \', escape=False)\nresponse.write(\'\\n    \', escape=False)\n# using sidebars need to know what sidebar you want to use\nmc0 = \'col-md-12\'\nmc1 = \'col-md-9\'\nmc2 = \'col-md-6\'\nleft_sidebar_enabled = globals().get(\'left_sidebar_enabled\', False)\nright_sidebar_enabled = globals().get(\'right_sidebar_enabled\', False)\nmiddle_column = {0: mc0, 1: mc1, 2: mc2}[\n(left_sidebar_enabled and 1 or 0)+(right_sidebar_enabled and 1 or 0)]\nresponse.write(\'\\n  </head>\\n  <body>\\n    <!--[if lt IE 8]><p class="browserupgrade">You are using an <strong>outdated</strong> browser. Please <a href="http://browsehappy.com/">upgrade your browser</a> to improve your experience.</p><![endif]-->\\n    <div class="w2p_flash alert alert-dismissable">\', escape=False)\nresponse.write(response.flash or \'\')\nresponse.write(\'</div>\\n    <!-- Navbar ======================================= -->\\n    <nav class="navbar navbar-default navbar-fixed-top" role="navigation">\\n      <div class="container-fluid">\\n        <div class="navbar-header">\\n          <button type="button" class="navbar-toggle" data-toggle="collapse" data-target=".navbar-collapse">\\n            <span class="sr-only">Toggle navigation</span>\\n            <span class="icon-bar"></span>\\n            <span class="icon-bar"></span>\\n            <span class="icon-bar"></span>\\n          </button>\\n          \', escape=False)\nresponse.write(response.logo or \'\')\nresponse.write(\'\\n        </div>\\n        <div class="collapse navbar-collapse navbar-ex1-collapse">\\n          <ul class="nav navbar-nav navbar-right">\\n            \', escape=False)\nresponse.write(\'auth\' in globals() and auth.navbar(\'Welcome\',mode=\'dropdown\') or \'\')\nresponse.write(\'\\n          </ul>\\n          \', escape=False)\nif response.menu:\n    response.write(\'\\n          \', escape=False)\n    response.write(MENU(response.menu, _class=\'nav navbar-nav\',li_class=\'dropdown\',ul_class=\'dropdown-menu\'))\n    response.write(\'\\n          \', escape=False)\n    pass\nresponse.write(\'\\n        </div>\\n      </div>\\n    </nav>\\n    <!-- Masthead ===================================== -->    \\n    \', escape=False)\nresponse.write(\'\\n    \', escape=False)\nresponse.write(\'\\n    <!-- Main ========================================= -->\\n    <!-- Begin page content -->\\n    <div class="container-fluid main-container">\\n      \', escape=False)\nif left_sidebar_enabled:\n    response.write(\'\\n        <div class="col-md-3 left-sidebar">\\n            \', escape=False)\n    response.write(\'\\n            <h3>Left Sidebar</h3>\\n            <p></p>\\n            \', escape=False)\n    response.write(\'\\n        </div>\\n      \', escape=False)\n    pass\nresponse.write(\'\\n\\n      <div class="\', escape=False)\nresponse.write(middle_column)\nresponse.write(\'">\\n        \', escape=False)\nresponse.write(\'\\n        \', escape=False)\nresponse.write(\'\\n<link rel="stylesheet" href="http://cdnjs.cloudflare.com/ajax/libs/font-awesome/4.4.0/css/font-awesome.min.css">\\n<style>\\n/**\\n * Oscuro: #283035\\n * Azul: #03658c\\n * Detalle: #c7cacb\\n * Fondo: #dee1e3\\n ----------------------------------*/\\n\\n * {\\n    margin: 0;\\n    padding: 0;\\n    -webkit-box-sizing: border-box;\\n    -moz-box-sizing: border-box;\\n    box-sizing: border-box;\\n }\\n\\n a {\\n    color: #03658c;\\n    text-decoration: none;\\n }\\n\\nul {\\n    list-style-type: none;\\n}\\n\\nbody {\\n    font-family: \\\'Roboto\\\', Arial, Helvetica, Sans-serif, Verdana;\\n    background: #dee1e3;\\n}\\n\\n/** ====================\\n * Lista de Comentarios\\n =======================*/\\n.comments-container {\\n    margin: 60px auto 15px;\\n    width: 768px;\\n}\\n\\n.comments-container h1 {\\n    font-size: 36px;\\n    color: #283035;\\n    font-weight: 400;\\n}\\n\\n.comments-container h1 a {\\n    font-size: 18px;\\n    font-weight: 700;\\n}\\n\\n.comments-list {\\n    margin-top: 30px;\\n    position: relative;\\n}\\n\\n/**\\n * Lineas / Detalles\\n -----------------------*/\\n.comments-list:before {\\n    content: \\\'\\\';\\n    width: 2px;\\n    height: 100%;\\n    background: #c7cacb;\\n    position: absolute;\\n    left: 32px;\\n    top: 0;\\n}\\n\\n.comments-list:after {\\n    content: \\\'\\\';\\n    position: absolute;\\n    background: #c7cacb;\\n    bottom: 0;\\n    left: 27px;\\n    width: 7px;\\n    height: 7px;\\n    border: 3px solid #dee1e3;\\n    -webkit-border-radius: 50%;\\n    -moz-border-radius: 50%;\\n    border-radius: 50%;\\n}\\n\\n.comments-list li {\\n    margin-bottom: 15px;\\n    display: block;\\n    position: relative;\\n}\\n\\n.comments-list li:after {\\n    content: \\\'\\\';\\n    display: block;\\n    clear: both;\\n    height: 0;\\n    width: 0;\\n}\\n\\n.comments-list .comment-avatar {\\n    width: 65px;\\n    height: 65px;\\n    position: relative;\\n    z-index: 99;\\n    float: left;\\n    border: 3px solid #FFF;\\n    -webkit-border-radius: 4px;\\n    -moz-border-radius: 4px;\\n    border-radius: 4px;\\n    -webkit-box-shadow: 0 1px 2px rgba(0,0,0,0.2);\\n    -moz-box-shadow: 0 1px 2px rgba(0,0,0,0.2);\\n    box-shadow: 0 1px 2px rgba(0,0,0,0.2);\\n    overflow: hidden;\\n}\\n\\n.comments-list .comment-avatar img {\\n    width: 100%;\\n    height: 100%;\\n}\\n\\n.reply-list .comment-avatar {\\n    width: 50px;\\n    height: 50px;\\n}\\n\\n.comment-main-level:after {\\n    content: \\\'\\\';\\n    width: 0;\\n    height: 0;\\n    display: block;\\n    clear: both;\\n}\\n/**\\n * Caja del Comentario\\n ---------------------------*/\\n.comments-list .comment-box {\\n    width: 680px;\\n    float: right;\\n    position: relative;\\n    -webkit-box-shadow: 0 1px 1px rgba(0,0,0,0.15);\\n    -moz-box-shadow: 0 1px 1px rgba(0,0,0,0.15);\\n    box-shadow: 0 1px 1px rgba(0,0,0,0.15);\\n}\\n\\n.comments-list .comment-box:before, .comments-list .comment-box:after {\\n    content: \\\'\\\';\\n    height: 0;\\n    width: 0;\\n    position: absolute;\\n    display: block;\\n    border-width: 10px 12px 10px 0;\\n    border-style: solid;\\n    border-color: transparent #FCFCFC;\\n    top: 8px;\\n    left: -11px;\\n}\\n\\n.comments-list .comment-box:before {\\n    border-width: 11px 13px 11px 0;\\n    border-color: transparent rgba(0,0,0,0.05);\\n    left: -12px;\\n}\\n\\n.comment-box .comment-head {\\n    background: #FCFCFC;\\n    padding: 10px 12px;\\n    border-bottom: 1px solid #E5E5E5;\\n    overflow: hidden;\\n    -webkit-border-radius: 4px 4px 0 0;\\n    -moz-border-radius: 4px 4px 0 0;\\n    border-radius: 4px 4px 0 0;\\n}\\n\\n.comment-box .comment-head i {\\n    float: right;\\n    margin-left: 14px;\\n    position: relative;\\n    top: 2px;\\n    color: #A6A6A6;\\n    cursor: pointer;\\n    -webkit-transition: color 0.3s ease;\\n    -o-transition: color 0.3s ease;\\n    transition: color 0.3s ease;\\n}\\n\\n.comment-box .comment-head i:hover {\\n    color: #03658c;\\n}\\n\\n.comment-box .comment-name {\\n    color: #283035;\\n    font-size: 14px;\\n    font-weight: 700;\\n    float: left;\\n    margin-right: 10px;\\n}\\n\\n.comment-box .comment-name a {\\n    color: #283035;\\n}\\n\\n.comment-box .comment-head span {\\n    float: left;\\n    color: #999;\\n    font-size: 13px;\\n    position: relative;\\n    top: 1px;\\n}\\n\\n.comment-box .comment-content {\\n    background: #FFF;\\n    padding: 12px;\\n    font-size: 15px;\\n    color: #595959;\\n    -webkit-border-radius: 0 0 4px 4px;\\n    -moz-border-radius: 0 0 4px 4px;\\n    border-radius: 0 0 4px 4px;\\n}\\n\\n.comment-box .comment-name.by-author, .comment-box .comment-name.by-author a {color: #03658c;}\\n.comment-box .comment-name.by-author:after {\\n    content: \\\'autor\\\';\\n    background: #03658c;\\n    color: #FFF;\\n    font-size: 12px;\\n    padding: 3px 5px;\\n    font-weight: 700;\\n    margin-left: 10px;\\n    -webkit-border-radius: 3px;\\n    -moz-border-radius: 3px;\\n    border-radius: 3px;\\n}\\n\\n/** =====================\\n * Responsive\\n ========================*/\\n@media only screen and (max-width: 766px) {\\n    .comments-container {\\n        width: 480px;\\n    }\\n\\n    .comments-list .comment-box {\\n        width: 390px;\\n    }\\n\\n    .reply-list .comment-box {\\n        width: 320px;\\n    }\\n}\\n</style>\\n\\n<form><input type="hidden" id="id" name="id" value="" /></form>\\n\\n<h1 class="page-header">\', escape=False)\nresponse.write(image.title)\nresponse.write(\'</h1>\\n<h3>Uploaded by: \', escape=False)\nresponse.write(image.author)\nresponse.write(\'</h3>\\n<small>\', escape=False)\nresponse.write(image.timestamp.date())\nresponse.write(\'</small>\\n\', escape=False)\nif image.file:\n    response.write(\'\\n<div style="text-align:center">\\n<img width="500px"\\n     src="\', escape=False)\n    response.write(URL(\'download\', args=image.file))\n    response.write(\'" />\\n</div>\\n\', escape=False)\n    pass\nresponse.write(\'\\n<br>\\n<div class="container">\\n    <h3>Question: </h3>\\n    <div class="jumbotron">\\n<h3>\', escape=False)\nresponse.write(image.body)\nresponse.write(\'</h3>\\n    </div>\\n</div>\\n\\n\\n\', escape=False)\nif len(commentss):\n    response.write(\'\\n<div class="comments-container">\\n        <h1>Answers</h1>\\n\\n        <ul id="comments-list" class="comments-list">\\n                      \', escape=False)\n    for posts in commentss:\n        response.write(\'\\n            <li>\\n                <div class="comment-main-level">\\n                    <!-- Avatar -->\\n                    <div class="comment-avatar"><img src="https://upload.wikimedia.org/wikipedia/en/e/ee/Unknown-person.gif" alt=""></div>\\n                    <!-- Contenedor del Comentario -->\\n                    <div class="comment-box">\\n                        <div class="comment-head">\\n                            <h6 class="comment-name">\', escape=False)\n        response.write(posts.author)\n        response.write(\'</h6>\\n                        </div>\\n                        <div class="comment-content">\\n                           \', escape=False)\n        response.write(posts.body)\n        response.write(\'\\n\\n                        </div>\\n                        \', escape=False)\n        flag=0\n        response.write(\'\\n                        \', escape=False)\n        for i in likess:\n            response.write(\'\\n                            \', escape=False)\n            if i.ans_id==posts.id and i.upordown==1:\n                response.write(\'\\n                                \', escape=False)\n                flag=1\n                response.write(\'\\n                                <button id="likepic" onclick="down(\\\'\', escape=False)\n                response.write(posts.id)\n                response.write(\'\\\'); change1();">UPVOTED  <i class="fa fa-thumbs-up" style="font-size:24px"></i></button>\\n                                <button id="dislikepic" onclick="down(\\\'\', escape=False)\n                response.write(posts.id)\n                response.write(\'\\\'); change2();">DOWNVOTE  <i class="fa fa-thumbs-up" style="font-size:24px"></i></button>\\n                            \', escape=False)\n            elif i.ans_id==posts.id and i.upordown==-1:\n                response.write(\'\\n                            <button id="likepic" onclick="up(\\\'\', escape=False)\n                response.write(posts.id)\n                response.write(\'\\\'); change1();">UPVOTE  <i class="fa fa-thumbs-up" style="font-size:24px"></i></button>\\n                            <button id="dislikepic" onclick="up(\\\'\', escape=False)\n                response.write(posts.id)\n                response.write(\'\\\'); change2();">DOWNVOTED  <i class="fa fa-thumbs-up" style="font-size:24px"></i></button>\\n                        \', escape=False)\n                flag=1\n                response.write(\'\\n                        \', escape=False)\n                pass\n            response.write(\'\\n                        \', escape=False)\n            pass\n        response.write(\'\\n                        \', escape=False)\n        if flag==0:\n            response.write(\'\\n                         <button id="likepic" onclick="up(\\\'\', escape=False)\n            response.write(posts.id)\n            response.write(\'\\\'); change1();">UPVOTE  <i class="fa fa-thumbs-up" style="font-size:24px"></i></button>\\n                         <button id="dislikepic" onclick="down(\\\'\', escape=False)\n            response.write(posts.id)\n            response.write(\'\\\'); change2();">DOWNVOTE  <i class="fa fa-thumbs-up" style="font-size:24px"></i></button>\\n                        <span id="imagelikes1">\', escape=False)\n            response.write(posts.likes)\n            response.write(\' Likes</span>\\n                        <span id="imagelikes2"></span>\\n                    </div>\\n                </div>\\n            </li>\\n                     \', escape=False)\n            pass\n        response.write(\' \\n    </ul>\\n\\n\\n\', escape=False)\n    else:\n        response.write(\'\\n  <h2>No answers posted yet</h2>\\n\', escape=False)\n        pass\n    response.write(\'\\n<h2>Answer the question</h2>\\n\', escape=False)\n    response.write(form)\n    response.write(\'\\n\\n\', escape=False)\n    response.write("\\n    \\n    \\n<script>\\n    function up(idno)\\n    {\\n        jQuery(\'#id\').val(idno);\\n        ajax(\'", escape=False)\n    response.write(URL(\'default\', \'like\'))\n    response.write("\', [\'id\'], \'imagelikes1\');\\n    }\\n    function down(idno)\\n    {\\n        jQuery(\'#id\').val(idno);\\n        ajax(\'", escape=False)\n    response.write(URL(\'default\', \'dislike\'))\n    response.write(\'\\\', [\\\'id\\\'], \\\'imagelikes2\\\');\\n    }\\n    function change1()\\n    {\\n        if(document.getElementById("likepic").innerHTML==\\\'UPVOTE  <i class="fa fa-thumbs-up" style="font-size:24px"></i>\\\')\\n        {\\n            document.getElementById("likepic").innerHTML=\\\'UPVOTED  <i class="fa fa-thumbs-up" style="font-size:24px"></i>\\\'\\n        }\\n        else if(document.getElementById("likepic").innerHTML==\\\'UPVOTED  <i class="fa fa-thumbs-up" style="font-size:24px"></i>\\\')\\n        {\\n            document.getElementById("likepic").innerHTML=\\\'UPVOTE  <i class="fa fa-thumbs-up" style="font-size:24px"></i>\\\'\\n        }\\n        else if(document.getElementById("dislikepic").innerHTML==\\\'DOWNVOTED  <i class="fa fa-thumbs-down" style="font-size:24px"></i>\\\')\\n        {\\n            document.getElementById("dislikepic").innerHTML=\\\'DOWNVOTE  <i class="fa fa-thumbs-down" style="font-size:24px"></i>\\\'\\n        }\\n    }\\n    function change2()\\n    {\\n        if(document.getElementById("likepic").innerHTML==\\\'UPVOTED  <i class="fa fa-thumbs-up" style="font-size:24px"></i>\\\')\\n        {\\n            document.getElementById("likepic").innerHTML=\\\'UPVOTE  <i class="fa fa-thumbs-up" style="font-size:24px"></i>\\\'\\n        }\\n        else if(document.getElementById("dislikepic").innerHTML==\\\'DOWNVOTE  <i class="fa fa-thumbs-down" style="font-size:24px"></i>\\\')\\n        {\\n            document.getElementById("dislikepic").innerHTML=\\\'DOWNVOTED  <i class="fa fa-thumbs-down" style="font-size:24px"></i>\\\'\\n        }\\n        else if(document.getElementById("dislikepic").innerHTML==\\\'DOWNVOTED  <i class="fa fa-thumbs-down" style="font-size:24px"></i>\\\')\\n        {\\n            document.getElementById("dislikepic").innerHTML=\\\'DOWNVOTE  <i class="fa fa-thumbs-down" style="font-size:24px"></i>\\\'\\n        }\\n    }\\n</script>\\n\', escape=False)\n    response.write(\'\\n        \', escape=False)\n    response.write(\'\\n      </div>\\n\\n      \', escape=False)\n    if right_sidebar_enabled:\n        response.write(\'\\n        <div class="col-md-3">\\n            \', escape=False)\n        response.write(\'\\n            <h3>Right Sidebar</h3>\\n            <p></p>\\n            \', escape=False)\n        response.write(\'\\n        </div>\\n      \', escape=False)\n        pass\n    response.write(\'\\n\\n    </div>\\n\\n    \', escape=False)\n    response.write(\' <!-- this is default footer -->      \\n    <footer class="footer">\\n      <div class="container-fluid">\\n        <div class="copyright pull-left">\', escape=False)\n    response.write(T(\'Copyright\'))\n    response.write(\' &#169; \', escape=False)\n    response.write(request.now.year)\n    response.write(\'</div>\\n          <div id="poweredBy" class="pull-right">\\n            \', escape=False)\n    response.write(T(\'Powered by\'))\n    response.write(\'\\n            <a href="http://127.0.0.1:8000/Cooking/default/index">Learn2Cook</a>\\n          </div>\\n      </div>\\n    </footer>\\n    \', escape=False)\n    response.write(\'\\n    <!-- The javascript =============================== -->\\n    <script src="\', escape=False)\n    response.write(URL(\'static\',\'js/bootstrap.min.js\'))\n    response.write(\'"></script>\\n    <script src="\', escape=False)\n    response.write(URL(\'static\',\'js/web2py-bootstrap3.js\'))\n    response.write(\'"></script>\\n    \', escape=False)\n    response.write(\'\\n    \', escape=False)\n    if response.google_analytics_id:\n        response.write(\'\\n    <!-- Analytics ==================================== -->\\n    <script src="\', escape=False)\n        response.write(URL(\'static\',\'js/analytics.min.js\'))\n        response.write(\'"></script>\\n    <script type="text/javascript">\\n      analytics.initialize({\\n      \\\'Google Analytics\\\':{trackingId:\\\'\', escape=False)\n        response.write(response.google_analytics_id)\n        response.write("\'}\\n      });\\n    </script>\\n    ", escape=False)\n        pass\n    response.write(\'\\n    <!-- Share ============================y============ -->\\n    <script src="\', escape=False)\n    response.write(URL(\'static\',\'js/share.js\',vars=dict(static=URL(\'static\',\'images\'))))\n    response.write(\'"></script>\\n  </body>\\n</html>\\n\', escape=False)'
p7
sS'snapshot'
p8
(dp9
S'exception'
p10
(dp11
S'__module__'
p12
S"'gluon.rocket'"
p13
sS'__getslice__'
p14
S"<method-wrapper '__getslice__' of SocketTimeout object>"
p15
sS'__str__'
p16
S"<method-wrapper '__str__' of SocketTimeout object>"
p17
sS'__reduce__'
p18
S'<built-in method __reduce__ of SocketTimeout object>'
p19
sS'__dict__'
p20
S'{}'
p21
sS'__sizeof__'
p22
S'<built-in method __sizeof__ of SocketTimeout object>'
p23
sS'__weakref__'
p24
S'None'
p25
sS'__init__'
p26
S"<method-wrapper '__init__' of SocketTimeout object>"
p27
sS'__setattr__'
p28
S"<method-wrapper '__setattr__' of SocketTimeout object>"
p29
sS'__reduce_ex__'
p30
S'<built-in method __reduce_ex__ of SocketTimeout object>'
p31
sS'__new__'
p32
S'<built-in method __new__ of type object>'
p33
sS'__format__'
p34
S'<built-in method __format__ of SocketTimeout object>'
p35
sS'__class__'
p36
S"<class 'gluon.rocket.SocketTimeout'>"
p37
sS'__doc__'
p38
S"'Exception for when a socket times out between requests.'"
p39
sS'__getitem__'
p40
S"<method-wrapper '__getitem__' of SocketTimeout object>"
p41
sS'__setstate__'
p42
S'<built-in method __setstate__ of SocketTimeout object>'
p43
sS'__getattribute__'
p44
S"<method-wrapper '__getattribute__' of SocketTimeout object>"
p45
sS'args'
p46
S"('Socket timed out before request.',)"
p47
sS'__subclasshook__'
p48
S'<built-in method __subclasshook__ of type object>'
p49
sS'__unicode__'
p50
S'<built-in method __unicode__ of SocketTimeout object>'
p51
sS'__delattr__'
p52
S"<method-wrapper '__delattr__' of SocketTimeout object>"
p53
sS'__repr__'
p54
S"<method-wrapper '__repr__' of SocketTimeout object>"
p55
sS'__hash__'
p56
S"<method-wrapper '__hash__' of SocketTimeout object>"
p57
ssS'evalue'
p58
S'Socket timed out before request.'
p59
sS'frames'
p60
(lp61
(dp62
S'file'
p63
S'/home/sreya/Documents/iiit/itws2/web2py/gluon/rocket.py'
p64
sS'dump'
p65
(dp66
S'self'
p67
S'<WSGIWorker(Thread-8, started daemon 139957093742336)>'
p68
sS'conn'
p69
S'<gluon.rocket.Connection object>'
p70
sS'self.run_app'
p71
S'<bound method WSGIWorker.run_app of <WSGIWorker(Thread-8, started daemon 139957093742336)>>'
p72
ssS'lnum'
p73
I1337
sS'lines'
p74
(dp75
I1332
S'            # Enter connection serve loop'
p76
sI1333
S'            while True:'
p77
sI1334
S'                if __debug__:'
p78
sI1335
S"                    self.err_log.debug('Serving a request')"
p79
sI1336
S'                try:'
p80
sI1337
S'                    self.run_app(conn)'
p81
sI1338
S'                except:'
p82
sI1339
S'                    exc = sys.exc_info()'
p83
sI1340
S'                    handled = self._handleError(*exc)'
p84
sI1341
S'                    if handled:'
p85
ssS'call'
p86
S'(self=<WSGIWorker(Thread-8, started daemon 139957093742336)>)'
p87
sS'func'
p88
S'run'
p89
sa(dp90
g63
S'/home/sreya/Documents/iiit/itws2/web2py/gluon/rocket.py'
p91
sg65
(dp92
S'self'
p93
S'<WSGIWorker(Thread-8, started daemon 139957093742336)>'
p94
sS'self.environ'
p95
S"{'HTTP_ACCEPT': 'text/html,application/xhtml+xml,application/xml;q=0.9,*/*;q=0.8', 'HTTP_ACCEPT_ENCODING': 'gzip, deflate', 'HTTP_ACCEPT_LANGUAGE': 'en-US,en;q=0.5', 'HTTP_CONNECTION': 'keep-alive', 'HTTP_COOKIE': 'session_id_welcome=127.0.0.1-32e845e2-d647-44e9-...r1=127.0.0.1-ca6431c9-d4d1-434d-b4f7-da530bf708b0', 'HTTP_HOST': '127.0.0.1:8000', 'HTTP_REFERER': 'http://127.0.0.1:8000/QuestionAnswer/default/homepage', 'HTTP_USER_AGENT': 'Mozilla/5.0 (X11; Ubuntu; Linux x86_64; rv:45.0) Gecko/20100101 Firefox/45.0', 'PATH_INFO': '/QuestionAnswer/default/show/5', 'QUERY_STRING': '', ...}"
p96
sS'sock_file'
p97
S'<socket._fileobject object>'
p98
sS'environ'
p99
S'undefined'
p100
sS'self.build_environ'
p101
S'<bound method WSGIWorker.build_environ of <WSGIWorker(Thread-8, started daemon 139957093742336)>>'
p102
sS'conn'
p103
S'<gluon.rocket.Connection object>'
p104
ssg73
I1830
sg74
(dp105
I1825
S'        else:'
p106
sI1826
S'            sock_file = conn.makefile(BUF_SIZE)'
p107
sI1827
S''
sI1828
S'        try:'
p108
sI1829
S'            # Read the headers and build our WSGI environment'
p109
sI1830
S'            self.environ = environ = self.build_environ(sock_file, conn)'
p110
sI1831
S''
sI1832
S'            # Handle 100 Continue'
p111
sI1833
S"            if environ.get('HTTP_EXPECT', '') == '100-continue':"
p112
sI1834
S"                res = environ['SERVER_PROTOCOL'] + ' 100 Continue\\r\\n\\r\\n'"
p113
ssg86
S'(self=<WSGIWorker(Thread-8, started daemon 139957093742336)>, conn=<gluon.rocket.Connection object>)'
p114
sg88
S'run_app'
p115
sa(dp116
g63
S'/home/sreya/Documents/iiit/itws2/web2py/gluon/rocket.py'
p117
sg65
(dp118
S'sock_file'
p119
S'<socket._fileobject object>'
p120
sS'self.read_request_line'
p121
S'<bound method WSGIWorker.read_request_line of <W...orker(Thread-8, started daemon 139957093742336)>>'
p122
sS'self'
p123
S'<WSGIWorker(Thread-8, started daemon 139957093742336)>'
p124
sS'request'
p125
g100
ssg73
I1650
sg74
(dp126
I1645
S'                                      "wsgiorg.futures": executor.futures})'
p127
sI1646
S''
sI1647
S'    def build_environ(self, sock_file, conn):'
p128
sI1648
S'        """ Build the execution environment. """'
p129
sI1649
S'        # Grab the request line'
p130
sI1650
S'        request = self.read_request_line(sock_file)'
p131
sI1651
S''
sI1652
S'        # Copy the Base Environment'
p132
sI1653
S'        environ = self.base_environ.copy()'
p133
sI1654
S''
ssg86
S'(self=<WSGIWorker(Thread-8, started daemon 139957093742336)>, sock_file=<socket._fileobject object>, conn=<gluon.rocket.Connection object>)'
p134
sg88
S'build_environ'
p135
sa(dp136
g63
S'/home/sreya/Documents/iiit/itws2/web2py/gluon/rocket.py'
p137
sg65
(dp138
S'global SocketTimeout'
p139
S"<class 'gluon.rocket.SocketTimeout'>"
p140
ssg73
I1401
sg74
(dp141
I1396
S''
sI1397
S'                d = sock_file.readline()'
p142
sI1398
S'                if PY3K:'
p143
sI1399
S"                    d = d.decode('ISO-8859-1')"
p144
sI1400
S'        except socket.timeout:'
p145
sI1401
S"            raise SocketTimeout('Socket timed out before request.')"
p146
sI1402
S'        except TypeError:'
p147
sI1403
S'            raise SocketClosed('
p148
sI1404
S"                'SSL bug caused closure of socket.  See '"
p149
sI1405
S'                \'"https://groups.google.com/d/topic/web2py/P_Gw0JxWzCs".\')'
p150
ssg86
S'(self=<WSGIWorker(Thread-8, started daemon 139957093742336)>, sock_file=<socket._fileobject object>)'
p151
sg88
S'read_request_line'
p152
sasS'pyver'
p153
S'Python 2.7.10: /usr/bin/python (prefix: /usr)'
p154
sS'etype'
p155
S"<class 'gluon.rocket.SocketTimeout'>"
p156
sS'date'
p157
S'Sat Apr  9 16:10:11 2016'
p158
sS'locals'
p159
(dp160
S'sock_file'
p161
S'<socket._fileobject object>'
p162
sS'self'
p163
S'<WSGIWorker(Thread-8, started daemon 139957093742336)>'
p164
sssS'traceback'
p165
S'Traceback (most recent call last):\n  File "/home/sreya/Documents/iiit/itws2/web2py/gluon/rocket.py", line 1337, in run\n    self.run_app(conn)\n  File "/home/sreya/Documents/iiit/itws2/web2py/gluon/rocket.py", line 1830, in run_app\n    self.environ = environ = self.build_environ(sock_file, conn)\n  File "/home/sreya/Documents/iiit/itws2/web2py/gluon/rocket.py", line 1650, in build_environ\n    request = self.read_request_line(sock_file)\n  File "/home/sreya/Documents/iiit/itws2/web2py/gluon/rocket.py", line 1401, in read_request_line\n    raise SocketTimeout(\'Socket timed out before request.\')\nSocketTimeout: Socket timed out before request.\n'
p166
s.