(dp1
S'output'
p2
S"<type 'exceptions.AttributeError'> "
p3
sS'layer'
p4
S'/home/sreya/Documents/iiit/itws2/web2py/applications/QuestionAnswer/views/default/show.html'
p5
sS'code'
p6
S'response.write(\'<!DOCTYPE html>\\n<!--[if (gt IE 9)|!(IE)]><!--> <html class="no-js" lang="\', escape=False)\nresponse.write(T.accepted_language or \'en\')\nresponse.write(\'"> <!--<![endif]-->\\n  <head>\\n    <meta charset="utf-8">\\n    <!-- www.phpied.com/conditional-comments-block-downloads/ -->\\n    <!-- Always force latest IE rendering engine\\n         (even in intranet) & Chrome Frame\\n         Remove this if you use the .htaccess -->\\n    <meta http-equiv="X-UA-Compatible" content="IE=edge\', escape=False)\nresponse.write(not request.is_local and \',chrome=1\' or \'\')\nresponse.write(\'">\\n    <!--  Mobile Viewport Fix\\n          j.mp/mobileviewport & davidbcalhoun.com/2010/viewport-metatag\\n          device-width: Occupy full width of the screen in its current orientation\\n          initial-scale = 1.0 retains dimensions instead of zooming out if page height > device height\\n          user-scalable = yes allows the user to zoom in -->\\n    <meta name="viewport" content="width=device-width, initial-scale=1.0">\\n    <title>\', escape=False)\nresponse.write(response.title or request.application)\nresponse.write(\'</title>\\n    <!-- http://dev.w3.org/html5/markup/meta.name.html -->\\n    <meta name="application-name" content="\', escape=False)\nresponse.write(request.application)\nresponse.write(\'">\\n    <!-- Speaking of Google, don\\\'t forget to set your site up:\\n         http://google.com/webmasters -->\\n    <meta name="google-site-verification" content="">\\n    <!-- include stylesheets -->\\n    <link rel="stylesheet" href="\', escape=False)\nresponse.write(URL(\'static\',\'css/bootstrap.min.css\'))\nresponse.write(\'"/>\\n    <link rel="stylesheet" href="\', escape=False)\nresponse.write(URL(\'static\',\'css/web2py-bootstrap3.css\'))\nresponse.write(\'"/>\\n    <link rel="shortcut icon" href="\', escape=False)\nresponse.write(URL(\'static\',\'images/favicon.ico\'))\nresponse.write(\'" type="image/x-icon">\\n    <link rel="apple-touch-icon" href="\', escape=False)\nresponse.write(URL(\'static\',\'images/favicon.png\'))\nresponse.write(\'">\\n    <!-- All JavaScript at the bottom, except for Modernizr which enables\\n         HTML5 elements & feature detects -->\\n    <script src="\', escape=False)\nresponse.write(URL(\'static\',\'js/modernizr-2.8.3.min.js\'))\nresponse.write(\'"></script>\\n    <!--[if lt IE 9]>\\n        <script src="\', escape=False)\nresponse.write(URL(\'static\',\'js/respond-1.4.2.min.js\'))\nresponse.write(\'"></script>\\n        <![endif]-->\\n    <!-- Favicons -->\\n    \', escape=False)\nresponse.write(\'<script type="text/javascript"><!--\\n    // These variables are used by the web2py_ajax_init function in web2py_ajax.js (which is loaded below).\\n    var w2p_ajax_confirm_message = "\', escape=False)\nresponse.write(T(\'Are you sure you want to delete this object?\'))\nresponse.write(\'";\\n    var w2p_ajax_disable_with_message = "\', escape=False)\nresponse.write(T(\'Working...\'))\nresponse.write(\'";\\n    var w2p_ajax_date_format = "\', escape=False)\nresponse.write(T(\'%Y-%m-%d\'))\nresponse.write(\'";\\n    var w2p_ajax_datetime_format = "\', escape=False)\nresponse.write(T(\'%Y-%m-%d %H:%M:%S\'))\nresponse.write(\'";\\n    var ajax_error_500 = \\\'\', escape=False)\nresponse.write(T.M(\'An error occured, please [[reload %s]] the page\') % URL(args=request.args, vars=request.get_vars))\nresponse.write("\'\\n    //--></script>\\n", escape=False)\nresponse.files.insert(0,URL(\'static\',\'js/jquery.js\'))\nresponse.files.insert(1,URL(\'static\',\'css/calendar.css\'))\nresponse.files.insert(2,URL(\'static\',\'js/calendar.js\'))\nresponse.files.insert(3,URL(\'static\',\'js/web2py.js\'))\nresponse.include_meta()\nresponse.include_files()\nresponse.write(\'\\n\', escape=False)\nresponse.write(\' <!-- this includes jquery.js, calendar.js/.css and web2py.js -->\\n    \', escape=False)\nresponse.write(\'\\n    \', escape=False)\n# using sidebars need to know what sidebar you want to use\nmc0 = \'col-md-12\'\nmc1 = \'col-md-9\'\nmc2 = \'col-md-6\'\nleft_sidebar_enabled = globals().get(\'left_sidebar_enabled\', False)\nright_sidebar_enabled = globals().get(\'right_sidebar_enabled\', False)\nmiddle_column = {0: mc0, 1: mc1, 2: mc2}[\n(left_sidebar_enabled and 1 or 0)+(right_sidebar_enabled and 1 or 0)]\nresponse.write(\'\\n  </head>\\n  <body>\\n    <!--[if lt IE 8]><p class="browserupgrade">You are using an <strong>outdated</strong> browser. Please <a href="http://browsehappy.com/">upgrade your browser</a> to improve your experience.</p><![endif]-->\\n    \\n    <!-- Navbar ======================================= -->\\n    <nav class="navbar navbar-default navbar-fixed-top" role="navigation">\\n      <div class="container-fluid">\\n        <div class="navbar-header">\\n          <button type="button" class="navbar-toggle" data-toggle="collapse" data-target=".navbar-collapse">\\n            <span class="sr-only">Toggle navigation</span>\\n            <span class="icon-bar"></span>\\n            <span class="icon-bar"></span>\\n            <span class="icon-bar"></span>\\n          </button>\\n          \', escape=False)\nresponse.write(response.logo or \'\')\nresponse.write(\'\\n        </div>\\n        <div class="collapse navbar-collapse navbar-ex1-collapse">\\n          <ul class="nav navbar-nav navbar-right">\\n            \', escape=False)\nresponse.write(\'auth\' in globals() and auth.navbar(\'Welcome\',mode=\'dropdown\') or \'\')\nresponse.write(\'\\n          </ul>\\n          \', escape=False)\nif response.menu:\n    response.write(\'\\n          \', escape=False)\n    response.write(MENU(response.menu, _class=\'nav navbar-nav\',li_class=\'dropdown\',ul_class=\'dropdown-menu\'))\n    response.write(\'\\n          \', escape=False)\n    pass\nresponse.write(\'\\n        </div>\\n      </div>\\n    </nav>\\n    <!-- Masthead ===================================== -->    \\n    \', escape=False)\nresponse.write(\'\\n    \', escape=False)\nresponse.write(\'\\n    <!-- Main ========================================= -->\\n    <!-- Begin page content -->\\n    <div class="container-fluid main-container">\\n      \', escape=False)\nif left_sidebar_enabled:\n    response.write(\'\\n        <div class="col-md-3 left-sidebar">\\n            \', escape=False)\n    response.write(\'\\n            <h3>Left Sidebar</h3>\\n            <p></p>\\n            \', escape=False)\n    response.write(\'\\n        </div>\\n      \', escape=False)\n    pass\nresponse.write(\'\\n\\n      <div class="\', escape=False)\nresponse.write(middle_column)\nresponse.write(\'">\\n        \', escape=False)\nresponse.write(\'\\n        \', escape=False)\nresponse.write(\'\\n<link rel="stylesheet" href="http://cdnjs.cloudflare.com/ajax/libs/font-awesome/4.4.0/css/font-awesome.min.css">\\n<style>\\n/**\\n * Oscuro: #283035\\n * Azul: #03658c\\n * Detalle: #c7cacb\\n * Fondo: #dee1e3\\n ----------------------------------*/\\n\\n * {\\n    margin: 0;\\n    padding: 0;\\n    -webkit-box-sizing: border-box;\\n    -moz-box-sizing: border-box;\\n    box-sizing: border-box;\\n }\\n\\n a {\\n    color: #03658c;\\n    text-decoration: none;\\n }\\n\\nul {\\n    list-style-type: none;\\n}\\n\\nbody {\\n    font-family: \\\'Roboto\\\', Arial, Helvetica, Sans-serif, Verdana;\\n    background-image:url("../../static/images/pp.jpg");\\n    background-size:100% 100%;\\n}\\n\\n/** ====================\\n * Lista de Comentarios\\n =======================*/\\n.comments-container {\\n    margin: 60px auto 15px;\\n    width: 768px;\\n}\\n\\n.comments-container h1 {\\n    font-size: 36px;\\n    color: #283035;\\n    font-weight: 400;\\n}\\n\\n.comments-container h1 a {\\n    font-size: 18px;\\n    font-weight: 700;\\n}\\n\\n.comments-list {\\n    margin-top: 30px;\\n    position: relative;\\n}\\n\\n/**\\n * Lineas / Detalles\\n -----------------------*/\\n.comments-list:before {\\n    content: \\\'\\\';\\n    width: 2px;\\n    height: 100%;\\n    background: #c7cacb;\\n    position: absolute;\\n    left: 32px;\\n    top: 0;\\n}\\n\\n.comments-list:after {\\n    content: \\\'\\\';\\n    position: absolute;\\n    background: #c7cacb;\\n    bottom: 0;\\n    left: 27px;\\n    width: 7px;\\n    height: 7px;\\n    border: 3px solid #dee1e3;\\n    -webkit-border-radius: 50%;\\n    -moz-border-radius: 50%;\\n    border-radius: 50%;\\n}\\n\\n.comments-list li {\\n    margin-bottom: 15px;\\n    display: block;\\n    position: relative;\\n}\\n\\n.comments-list li:after {\\n    content: \\\'\\\';\\n    display: block;\\n    clear: both;\\n    height: 0;\\n    width: 0;\\n}\\n\\n.comments-list .comment-avatar {\\n    width: 65px;\\n    height: 65px;\\n    position: relative;\\n    z-index: 99;\\n    float: left;\\n    border: 3px solid #FFF;\\n    -webkit-border-radius: 4px;\\n    -moz-border-radius: 4px;\\n    border-radius: 4px;\\n    -webkit-box-shadow: 0 1px 2px rgba(0,0,0,0.2);\\n    -moz-box-shadow: 0 1px 2px rgba(0,0,0,0.2);\\n    box-shadow: 0 1px 2px rgba(0,0,0,0.2);\\n    overflow: hidden;\\n}\\n\\n.comments-list .comment-avatar img {\\n    width: 100%;\\n    height: 100%;\\n}\\n\\n.reply-list .comment-avatar {\\n    width: 50px;\\n    height: 50px;\\n}\\n\\n.comment-main-level:after {\\n    content: \\\'\\\';\\n    width: 0;\\n    height: 0;\\n    display: block;\\n    clear: both;\\n}\\n/**\\n * Caja del Comentario\\n ---------------------------*/\\n.comments-list .comment-box {\\n    width: 680px;\\n    float: right;\\n    position: relative;\\n    -webkit-box-shadow: 0 1px 1px rgba(0,0,0,0.15);\\n    -moz-box-shadow: 0 1px 1px rgba(0,0,0,0.15);\\n    box-shadow: 0 1px 1px rgba(0,0,0,0.15);\\n}\\n\\n.comments-list .comment-box:before, .comments-list .comment-box:after {\\n    content: \\\'\\\';\\n    height: 0;\\n    width: 0;\\n    position: absolute;\\n    display: block;\\n    border-width: 10px 12px 10px 0;\\n    border-style: solid;\\n    border-color: transparent #FCFCFC;\\n    top: 8px;\\n    left: -11px;\\n}\\n\\n.comments-list .comment-box:before {\\n    border-width: 11px 13px 11px 0;\\n    border-color: transparent rgba(0,0,0,0.05);\\n    left: -12px;\\n}\\n\\n.comment-box .comment-head {\\n    background: #FCFCFC;\\n    padding: 10px 12px;\\n    border-bottom: 1px solid #E5E5E5;\\n    overflow: hidden;\\n    -webkit-border-radius: 4px 4px 0 0;\\n    -moz-border-radius: 4px 4px 0 0;\\n    border-radius: 4px 4px 0 0;\\n}\\n\\n.comment-box .comment-head i {\\n    float: right;\\n    margin-left: 14px;\\n    position: relative;\\n    top: 2px;\\n    color: #A6A6A6;\\n    cursor: pointer;\\n    -webkit-transition: color 0.3s ease;\\n    -o-transition: color 0.3s ease;\\n    transition: color 0.3s ease;\\n}\\n\\n.comment-box .comment-head i:hover {\\n    color: #03658c;\\n}\\n\\n.comment-box .comment-name {\\n    color: #283035;\\n    font-size: 14px;\\n    font-weight: 700;\\n    float: left;\\n    margin-right: 10px;\\n}\\n\\n.comment-box .comment-name a {\\n    color: #283035;\\n}\\n\\n.comment-box .comment-head span {\\n    float: left;\\n    color: #999;\\n    font-size: 13px;\\n    position: relative;\\n    top: 1px;\\n}\\n\\n.comment-box .comment-content {\\n    background: #FFF;\\n    padding: 12px;\\n    font-size: 15px;\\n    color: #595959;\\n    -webkit-border-radius: 0 0 4px 4px;\\n    -moz-border-radius: 0 0 4px 4px;\\n    border-radius: 0 0 4px 4px;\\n}\\n\\n.comment-box .comment-name.by-author, .comment-box .comment-name.by-author a {color: #03658c;}\\n.comment-box .comment-name.by-author:after {\\n    content: \\\'autor\\\';\\n    background: #03658c;\\n    color: #FFF;\\n    font-size: 12px;\\n    padding: 3px 5px;\\n    font-weight: 700;\\n    margin-left: 10px;\\n    -webkit-border-radius: 3px;\\n    -moz-border-radius: 3px;\\n    border-radius: 3px;\\n}\\n\\n/** =====================\\n * Responsive\\n ========================*/\\n@media only screen and (max-width: 766px) {\\n    .comments-container {\\n        width: 480px;\\n    }\\n\\n    .comments-list .comment-box {\\n        width: 390px;\\n    }\\n\\n    .reply-list .comment-box {\\n        width: 320px;\\n    }\\n}\\n</style>\\n\\n<form><input type="hidden" id="id" name="id" value="" /></form>\\n<div style="text-align:right;">\\n\', escape=False)\nif starss:\n    response.write(\'\\n    <button id="starring" onclick="star(\\\'\', escape=False)\n    response.write(image.id)\n    response.write(\'\\\'); change();"><i class="fa fa-star" style="font-size:24px"></i></button>\\n\', escape=False)\nelse:\n    response.write(\'\\n    <button id="starring" onclick="star(\\\'\', escape=False)\n    response.write(image.id)\n    response.write(\'\\\'); change();"><i class="fa fa-star-o" style="font-size:24px"></i></button>\\n\', escape=False)\n    pass\nresponse.write(\'\\n</div>\\n<div id="temp"></div>\\n<h3>\\n    Tags:\\n</h3>\\n\', escape=False)\nfor tag in image.title:\n    response.write(\'\\n<span style="font-weight:bold; font-size:120%; border-radius:8%;" class="text-primary bg-info">\', escape=False)\n    response.write(tag)\n    response.write(\'</span>\\n\', escape=False)\n    pass\nresponse.write(\'\\n\', escape=False)\nif image.anonymous==True:\n    response.write(\'\\n<h3>Asked by: Anonymous</h3>\\n\', escape=False)\nelse:\n    response.write(\'\\n\', escape=False)\n    if image.file:\n        response.write(\'\\n<div style="text-align:center">\\n<img class="img-responsive img-rounded" width="500px"\\n     src="\', escape=False)\n        response.write(URL(\'download\', args=image.file))\n        response.write(\'" />\\n</div>\\n\', escape=False)\n        pass\n    response.write(\'\\n<br>\\n<div class="container">\\n    <h3>Question: </h3>\\n    <div class="jumbotron">\\n<h3>\', escape=False)\n    response.write(image.body)\n    response.write(\'</h3>\\n    </div>\\n</div>\\n<h3>Asked by: \', escape=False)\n    response.write(image.author)\n    response.write(\'</h3>\\n\', escape=False)\n    pass\nresponse.write(\'\\n<small>\', escape=False)\nresponse.write(image.timestamp.date())\nresponse.write(\'</small>\\n\\n\', escape=False)\nif len(views):\n    response.write(\'\\n\\n<div>\\n    \', escape=False)\n    for view in views:\n        response.write(\'\\n    <div class="container">\\n        <h3>\\n            Review\\n        </h3>\\n        <blockquote class="blockquote">\\n            \', escape=False)\n        response.write(view.view)\n        response.write(\'\\n            <footer>Expert</footer>\\n        </blockquote>\\n    </div>\\n    \', escape=False)\n        pass\n    response.write(\'\\n    </div>\\n\', escape=False)\n    pass\nresponse.write(\'\\n\\n\', escape=False)\nif len(commentss):\n    response.write(\'\\n<div class="comments-container">\\n        <h1>Answers</h1>\\n        <ul id="comments-list" class="comments-list">\\n                      \', escape=False)\n    for posts in commentss:\n        response.write(\'\\n            <li>\\n                <div class="comment-main-level">\\n                    <!-- Avatar -->\\n                    <div class="comment-avatar"><img src="https://upload.wikimedia.org/wikipedia/en/e/ee/Unknown-person.gif" alt=""></div>\\n                    <!-- Contenedor del Comentario -->\\n                    <div class="comment-box">\\n                        <div class="comment-head">\\n                            <h6 class="comment-name">\', escape=False)\n        response.write(posts.author)\n        response.write(\' \\n                               \', escape=False)\n        for users in commentors:\n            response.write(\'\\n                                \', escape=False)\n            if posts.email==users.email:\n                response.write(\'\\n                                \', escape=False)\n                if users.badge=="Gold":\n                    response.write(\'\\n                                    <img style="width:20px" src="../../static/images/gold.jpeg"/>\\n                                \', escape=False)\n                elif users.badge=="Silver":\n                    response.write(\'\\n                                    <img style="width:20px" src="../../static/images/silver.jpeg"/>\\n                                \', escape=False)\n                elif users.badge=="Bronze":\n                    response.write(\'\\n                                    <img style="width:20px" src="../../static/images/bronze.jpeg"/>\\n                                \', escape=False)\n                else:\n                    response.write(\'\\n                                    <img style="width:20px" src="../../static/images/newbie.jpeg"/>\\n                                \', escape=False)\n                    pass\n                response.write(\'\\n                                \', escape=False)\n                pass\n            response.write(\'\\n                                \', escape=False)\n            pass\n        response.write(\'\\n                            </h6>\\n                        </div>\\n                        <div class="comment-content">\\n                           \', escape=False)\n        response.write(posts.body)\n        response.write(\'\\n\\n                        \', escape=False)\n        if posts.file:\n            response.write(\'\\n                        <div style="text-align:center">\\n                        <img class="img-responsive img-rounded" width="300px"\\n                             src="\', escape=False)\n            response.write(URL(\'download\', args=posts.file))\n            response.write(\'" />\\n                        </div>\\n                        \', escape=False)\n            pass\n        response.write(\'\\n                        </div>\\n                        \', escape=False)\n        flag=0\n        response.write(\'\\n                        \', escape=False)\n        for i in likess:\n            response.write(\'\\n                            \', escape=False)\n            if i.ans_id==posts.id and int(i.upordown)==1:\n                response.write(\'\\n                                \', escape=False)\n                flag=1\n                response.write(\'\\n                                <button class="label label-success" id="\', escape=False)\n                response.write(posts.id)\n                response.write(\'likepic" onclick="up(\\\'\', escape=False)\n                response.write(posts.id)\n                response.write("\'); change1(\'", escape=False)\n                response.write(posts.id)\n                response.write(\'\\\');">UPVOTED  <i class="fa fa-thumbs-up" style="font-size:24px"></i></button>\\n                                <button class="label label-danger" id="\', escape=False)\n                response.write(posts.id)\n                response.write(\'dislikepic" onclick="down(\\\'\', escape=False)\n                response.write(posts.id)\n                response.write("\'); change2(\'", escape=False)\n                response.write(posts.id)\n                response.write(\'\\\');">DOWNVOTE  <i class="fa fa-thumbs-down" style="font-size:24px"></i></button>\\n                            \', escape=False)\n            elif i.ans_id==posts.id and int(i.upordown)==-1:\n                response.write(\'\\n                            <button class="label label-success" id="\', escape=False)\n                response.write(posts.id)\n                response.write(\'likepic" onclick="up(\\\'\', escape=False)\n                response.write(posts.id)\n                response.write("\'); change1(\'", escape=False)\n                response.write(posts.id)\n                response.write(\'\\\');">UPVOTE  <i class="fa fa-thumbs-up" style="font-size:24px"></i></button>\\n                            <button class="label label-danger" id="\', escape=False)\n                response.write(posts.id)\n                response.write(\'dislikepic" onclick="down(\\\'\', escape=False)\n                response.write(posts.id)\n                response.write("\'); change2(\'", escape=False)\n                response.write(posts.id)\n                response.write(\'\\\');">DOWNVOTED  <i class="fa fa-thumbs-down" style="font-size:24px"></i></button>\\n                        \', escape=False)\n                flag=1\n                response.write(\'\\n                        \', escape=False)\n                pass\n            response.write(\'\\n                        \', escape=False)\n            pass\n        response.write(\'\\n                        \', escape=False)\n        if flag==0:\n            response.write(\'\\n                         <button class="label label-success" id="\', escape=False)\n            response.write(posts.id)\n            response.write(\'likepic" onclick="up(\\\'\', escape=False)\n            response.write(posts.id)\n            response.write("\'); change1(\'", escape=False)\n            response.write(posts.id)\n            response.write(\'\\\');">UPVOTE  <i class="fa fa-thumbs-up" style="font-size:24px"></i></button>\\n                         <button class="label label-danger" id="\', escape=False)\n            response.write(posts.id)\n            response.write(\'dislikepic" onclick="down(\\\'\', escape=False)\n            response.write(posts.id)\n            response.write("\'); change2(\'", escape=False)\n            response.write(posts.id)\n            response.write(\'\\\');">DOWNVOTE  <i class="fa fa-thumbs-down" style="font-size:24px"></i></button>\\n                        \', escape=False)\n            pass\n        response.write(\'\\n                        <span id="\', escape=False)\n        response.write(posts.id)\n        response.write(\'" class="badge" style="background-color:black;">\', escape=False)\n        response.write(posts.likes)\n        response.write(\'</span>\\n                    </div>\\n                </div>\\n            </li>\\n                     \', escape=False)\n        pass\n    response.write(\'\\n    </ul>\\n\\n\\n\', escape=False)\nelse:\n    response.write(\'\\n  <h2>No answers posted yet</h2>\\n\', escape=False)\n    pass\nresponse.write(\'\\n<h2>Answer the question</h2>\\n\', escape=False)\nresponse.write(form)\nresponse.write(\'\\n\\n\', escape=False)\nresponse.write("\\n    \\n    \\n<script>\\n    function up(idno)\\n    {\\n        jQuery(\'#id\').val(idno);\\n        ajax(\'", escape=False)\nresponse.write(URL(\'default\', \'like\'))\nresponse.write("\', [\'id\'], idno);\\n    }\\n    function down(idno)\\n    {\\n        jQuery(\'#id\').val(idno);\\n        ajax(\'", escape=False)\nresponse.write(URL(\'default\', \'dislike\'))\nresponse.write(\'\\\', [\\\'id\\\'], idno);\\n    }\\n    function change1(idno)\\n    {\\n        \\n        id1=idno+"likepic"\\n        id2=idno+"dislikepic"\\n        if(document.getElementById(id1).innerHTML==\\\'UPVOTE  <i class="fa fa-thumbs-up" style="font-size:24px"></i>\\\')\\n        {\\n            document.getElementById(id1).innerHTML=\\\'UPVOTED  <i class="fa fa-thumbs-up" style="font-size:24px"></i>\\\'\\n        }\\n        else if(document.getElementById(id1).innerHTML==\\\'UPVOTED  <i class="fa fa-thumbs-up" style="font-size:24px"></i>\\\')\\n        {\\n            document.getElementById(id1).innerHTML=\\\'UPVOTE  <i class="fa fa-thumbs-up" style="font-size:24px"></i>\\\'\\n        }\\n        if(document.getElementById(id2).innerHTML==\\\'DOWNVOTED  <i class="fa fa-thumbs-down" style="font-size:24px"></i>\\\')\\n        {\\n            document.getElementById(id2).innerHTML=\\\'DOWNVOTE  <i class="fa fa-thumbs-down" style="font-size:24px"></i>\\\'\\n        }\\n    }\\n    function change2(idno)\\n    {\\n        id1=idno+"likepic"\\n        id2=idno+"dislikepic"\\n        if(document.getElementById(id1).innerHTML==\\\'UPVOTED  <i class="fa fa-thumbs-up" style="font-size:24px"></i>\\\')\\n        {\\n            document.getElementById(id1).innerHTML=\\\'UPVOTE  <i class="fa fa-thumbs-up" style="font-size:24px"></i>\\\'\\n        }\\n        if(document.getElementById(id2).innerHTML==\\\'DOWNVOTE  <i class="fa fa-thumbs-down" style="font-size:24px"></i>\\\')\\n        {\\n            document.getElementById(id2).innerHTML=\\\'DOWNVOTED  <i class="fa fa-thumbs-down" style="font-size:24px"></i>\\\'\\n        }\\n        else if(document.getElementById(id2).innerHTML==\\\'DOWNVOTED  <i class="fa fa-thumbs-down" style="font-size:24px"></i>\\\')\\n        {\\n            document.getElementById(id2).innerHTML=\\\'DOWNVOTE  <i class="fa fa-thumbs-down" style="font-size:24px"></i>\\\'\\n        }\\n    }\\n    function star(idno)\\n    {\\n        jQuery(\\\'#id\\\').val(idno);\\n        ajax(\\\'\', escape=False)\nresponse.write(URL(\'default\', \'star\'))\nresponse.write(\'\\\', [\\\'id\\\'], temp);\\n    }\\n    function change()\\n    {\\n        if(document.getElementById("starring").innerHTML==\\\'<i class="fa fa-star" style="font-size:24px"></i>\\\')\\n        {\\n            document.getElementById("starring").innerHTML=\\\'<i class="fa fa-star-o" style="font-size:24px"></i>\\\'\\n        }\\n        else if(document.getElementById("starring").innerHTML==\\\'<i class="fa fa-star-o" style="font-size:24px"></i>\\\')\\n        {\\n            document.getElementById("starring").innerHTML=\\\'<i class="fa fa-star" style="font-size:24px"></i>\\\'\\n        }\\n    }\\n</script>\\n\', escape=False)\nresponse.write(\'\\n        \', escape=False)\nresponse.write(\'\\n      </div>\\n\\n      \', escape=False)\nif right_sidebar_enabled:\n    response.write(\'\\n        <div class="col-md-3">\\n            \', escape=False)\n    response.write(\'\\n            <h3>Right Sidebar</h3>\\n            <p></p>\\n            \', escape=False)\n    response.write(\'\\n        </div>\\n      \', escape=False)\n    pass\nresponse.write(\'\\n\\n    </div>\\n\\n    \', escape=False)\nresponse.write(\' <!-- this is default footer -->      \\n    <footer class="footer">\\n      <div class="container-fluid">\\n        <div class="copyright pull-left">\', escape=False)\nresponse.write(T(\'Copyright\'))\nresponse.write(\' &#169; \', escape=False)\nresponse.write(request.now.year)\nresponse.write(\'</div>\\n          <div id="poweredBy" class="pull-right">\\n            \', escape=False)\nresponse.write(T(\'Powered by\'))\nresponse.write(\'\\n            <a href="http://127.0.0.1:8000/QuestionAnswer/default/index">Ask&Answer</a>\\n          </div>\\n      </div>\\n    </footer>\\n    \', escape=False)\nresponse.write(\'\\n    <!-- The javascript =============================== -->\\n    <script src="\', escape=False)\nresponse.write(URL(\'static\',\'js/bootstrap.min.js\'))\nresponse.write(\'"></script>\\n    <script src="\', escape=False)\nresponse.write(URL(\'static\',\'js/web2py-bootstrap3.js\'))\nresponse.write(\'"></script>\\n    \', escape=False)\nresponse.write(\'\\n    \', escape=False)\nif response.google_analytics_id:\n    response.write(\'\\n    <!-- Analytics ==================================== -->\\n    <script src="\', escape=False)\n    response.write(URL(\'static\',\'js/analytics.min.js\'))\n    response.write(\'"></script>\\n    <script type="text/javascript">\\n      analytics.initialize({\\n      \\\'Google Analytics\\\':{trackingId:\\\'\', escape=False)\n    response.write(response.google_analytics_id)\n    response.write("\'}\\n      });\\n    </script>\\n    ", escape=False)\n    pass\nresponse.write(\'\\n    <!-- Share ============================y============ -->\\n    <script src="\', escape=False)\nresponse.write(URL(\'static\',\'js/share.js\',vars=dict(static=URL(\'static\',\'images\'))))\nresponse.write(\'"></script>\\n  </body>\\n</html>\\n\', escape=False)'
p7
sS'snapshot'
p8
(dp9
S'exception'
p10
(dp11
S'__hash__'
p12
S"<method-wrapper '__hash__' of exceptions.AttributeError object>"
p13
sS'__setattr__'
p14
S"<method-wrapper '__setattr__' of exceptions.AttributeError object>"
p15
sS'__reduce_ex__'
p16
S'<built-in method __reduce_ex__ of exceptions.AttributeError object>'
p17
sS'__getslice__'
p18
S"<method-wrapper '__getslice__' of exceptions.AttributeError object>"
p19
sS'__getitem__'
p20
S"<method-wrapper '__getitem__' of exceptions.AttributeError object>"
p21
sS'__setstate__'
p22
S'<built-in method __setstate__ of exceptions.AttributeError object>'
p23
sS'args'
p24
S'()'
p25
sS'__reduce__'
p26
S'<built-in method __reduce__ of exceptions.AttributeError object>'
p27
sS'__str__'
p28
S"<method-wrapper '__str__' of exceptions.AttributeError object>"
p29
sS'__format__'
p30
S'<built-in method __format__ of exceptions.AttributeError object>'
p31
sS'__getattribute__'
p32
S"<method-wrapper '__getattribute__' of exceptions.AttributeError object>"
p33
sS'__class__'
p34
S"<type 'exceptions.AttributeError'>"
p35
sS'__unicode__'
p36
S'<built-in method __unicode__ of exceptions.AttributeError object>'
p37
sS'__delattr__'
p38
S"<method-wrapper '__delattr__' of exceptions.AttributeError object>"
p39
sS'__subclasshook__'
p40
S'<built-in method __subclasshook__ of type object>'
p41
sS'__repr__'
p42
S"<method-wrapper '__repr__' of exceptions.AttributeError object>"
p43
sS'__dict__'
p44
S'{}'
p45
sS'__sizeof__'
p46
S'<built-in method __sizeof__ of exceptions.AttributeError object>'
p47
sS'__doc__'
p48
S"'Attribute not found.'"
p49
sS'__init__'
p50
S"<method-wrapper '__init__' of exceptions.AttributeError object>"
p51
sS'__new__'
p52
S'<built-in method __new__ of type object>'
p53
ssS'evalue'
p54
S''
sS'request'
p55
cgluon.html
XML_unpickle
p56
(S's\x19_\x00\x00<div><table><tr><td style="font-weight:bold;vertical-align:top;">ajax</td><td style="vertical-align:top;">:</td><td><div>False</div></td></tr><tr><td style="font-weight:bold;vertical-align:top;">application</td><td style="vertical-align:top;">:</td><td><div>QuestionAnswer</div></td></tr><tr><td style="font-weight:bold;vertical-align:top;">args</td><td style="vertical-align:top;">:</td><td><div><table><tr><td><div>28</div></td></tr></table></div></td></tr><tr><td style="font-weight:bold;vertical-align:top;">cid</td><td style="vertical-align:top;">:</td><td><div>None</div></td></tr><tr><td style="font-weight:bold;vertical-align:top;">client</td><td style="vertical-align:top;">:</td><td><div>127.0.0.1</div></td></tr><tr><td style="font-weight:bold;vertical-align:top;">controller</td><td style="vertical-align:top;">:</td><td><div>default</div></td></tr><tr><td style="font-weight:bold;vertical-align:top;">cookies</td><td style="vertical-align:top;">:</td><td><div><table><tr><td style="font-weight:bold;vertical-align:top;">session_id_admin</td><td style="vertical-align:top;">:</td><td><div>127.0.0.1-9508aa18-2d6e-4863-b182-75c0d84bbc93<table><tr><td style="font-weight:bold;vertical-align:top;">comment</td><td style="vertical-align:top;">:</td><td><div></div></td></tr><tr><td style="font-weight:bold;vertical-align:top;">domain</td><td style="vertical-align:top;">:</td><td><div></div></td></tr><tr><td style="font-weight:bold;vertical-align:top;">expires</td><td style="vertical-align:top;">:</td><td><div></div></td></tr><tr><td style="font-weight:bold;vertical-align:top;">httponly</td><td style="vertical-align:top;">:</td><td><div></div></td></tr><tr><td style="font-weight:bold;vertical-align:top;">max-age</td><td style="vertical-align:top;">:</td><td><div></div></td></tr><tr><td style="font-weight:bold;vertical-align:top;">path</td><td style="vertical-align:top;">:</td><td><div></div></td></tr><tr><td style="font-weight:bold;vertical-align:top;">secure</td><td style="vertical-align:top;">:</td><td><div></div></td></tr><tr><td style="font-weight:bold;vertical-align:top;">version</td><td style="vertical-align:top;">:</td><td><div></div></td></tr></table></div></td></tr><tr><td style="font-weight:bold;vertical-align:top;">session_id_projectbackup</td><td style="vertical-align:top;">:</td><td><div>127.0.0.1-050c6bca-884b-4cd5-8eba-85f1a31f5166<table><tr><td style="font-weight:bold;vertical-align:top;">comment</td><td style="vertical-align:top;">:</td><td><div></div></td></tr><tr><td style="font-weight:bold;vertical-align:top;">domain</td><td style="vertical-align:top;">:</td><td><div></div></td></tr><tr><td style="font-weight:bold;vertical-align:top;">expires</td><td style="vertical-align:top;">:</td><td><div></div></td></tr><tr><td style="font-weight:bold;vertical-align:top;">httponly</td><td style="vertical-align:top;">:</td><td><div></div></td></tr><tr><td style="font-weight:bold;vertical-align:top;">max-age</td><td style="vertical-align:top;">:</td><td><div></div></td></tr><tr><td style="font-weight:bold;vertical-align:top;">path</td><td style="vertical-align:top;">:</td><td><div></div></td></tr><tr><td style="font-weight:bold;vertical-align:top;">secure</td><td style="vertical-align:top;">:</td><td><div></div></td></tr><tr><td style="font-weight:bold;vertical-align:top;">version</td><td style="vertical-align:top;">:</td><td><div></div></td></tr></table></div></td></tr><tr><td style="font-weight:bold;vertical-align:top;">session_id_questionanswer</td><td style="vertical-align:top;">:</td><td><div>127.0.0.1-616ae64e-6658-421a-81cf-4db770a03bab<table><tr><td style="font-weight:bold;vertical-align:top;">comment</td><td style="vertical-align:top;">:</td><td><div></div></td></tr><tr><td style="font-weight:bold;vertical-align:top;">domain</td><td style="vertical-align:top;">:</td><td><div></div></td></tr><tr><td style="font-weight:bold;vertical-align:top;">expires</td><td style="vertical-align:top;">:</td><td><div></div></td></tr><tr><td style="font-weight:bold;vertical-align:top;">httponly</td><td style="vertical-align:top;">:</td><td><div></div></td></tr><tr><td style="font-weight:bold;vertical-align:top;">max-age</td><td style="vertical-align:top;">:</td><td><div></div></td></tr><tr><td style="font-weight:bold;vertical-align:top;">path</td><td style="vertical-align:top;">:</td><td><div></div></td></tr><tr><td style="font-weight:bold;vertical-align:top;">secure</td><td style="vertical-align:top;">:</td><td><div></div></td></tr><tr><td style="font-weight:bold;vertical-align:top;">version</td><td style="vertical-align:top;">:</td><td><div></div></td></tr></table></div></td></tr><tr><td style="font-weight:bold;vertical-align:top;">session_id_welcome</td><td style="vertical-align:top;">:</td><td><div>127.0.0.1-139ec4df-e7ad-4f9d-aee6-770045d17a03<table><tr><td style="font-weight:bold;vertical-align:top;">comment</td><td style="vertical-align:top;">:</td><td><div></div></td></tr><tr><td style="font-weight:bold;vertical-align:top;">domain</td><td style="vertical-align:top;">:</td><td><div></div></td></tr><tr><td style="font-weight:bold;vertical-align:top;">expires</td><td style="vertical-align:top;">:</td><td><div></div></td></tr><tr><td style="font-weight:bold;vertical-align:top;">httponly</td><td style="vertical-align:top;">:</td><td><div></div></td></tr><tr><td style="font-weight:bold;vertical-align:top;">max-age</td><td style="vertical-align:top;">:</td><td><div></div></td></tr><tr><td style="font-weight:bold;vertical-align:top;">path</td><td style="vertical-align:top;">:</td><td><div></div></td></tr><tr><td style="font-weight:bold;vertical-align:top;">secure</td><td style="vertical-align:top;">:</td><td><div></div></td></tr><tr><td style="font-weight:bold;vertical-align:top;">version</td><td style="vertical-align:top;">:</td><td><div></div></td></tr></table></div></td></tr></table></div></td></tr><tr><td style="font-weight:bold;vertical-align:top;">env</td><td style="vertical-align:top;">:</td><td><div><table><tr><td style="font-weight:bold;vertical-align:top;">HTTP_ACCEPT</td><td style="vertical-align:top;">:</td><td><div>text/html,application/xhtml+xml,application/xml;q=0.9,*/*;q=0.8</div></td></tr><tr><td style="font-weight:bold;vertical-align:top;">HTTP_ACCEPT_ENCODING</td><td style="vertical-align:top;">:</td><td><div>gzip, deflate</div></td></tr><tr><td style="font-weight:bold;vertical-align:top;">HTTP_ACCEPT_LANGUAGE</td><td style="vertical-align:top;">:</td><td><div>en-US,en;q=0.5</div></td></tr><tr><td style="font-weight:bold;vertical-align:top;">HTTP_CONNECTION</td><td style="vertical-align:top;">:</td><td><div>keep-alive</div></td></tr><tr><td style="font-weight:bold;vertical-align:top;">HTTP_COOKIE</td><td style="vertical-align:top;">:</td><td><div>session_id_projectbackup=127.0.0.1-050c6bca-884b-4cd5-8eba-85f1a31f5166; session_id_questionanswer=127.0.0.1-616ae64e-6658-421a-81cf-4db770a03bab; session_id_welcome=127.0.0.1-139ec4df-e7ad-4f9d-aee6-770045d17a03; session_id_admin=127.0.0.1-9508aa18-2d6e-4863-b182-75c0d84bbc93</div></td></tr><tr><td style="font-weight:bold;vertical-align:top;">HTTP_HOST</td><td style="vertical-align:top;">:</td><td><div>127.0.0.1:8000</div></td></tr><tr><td style="font-weight:bold;vertical-align:top;">HTTP_USER_AGENT</td><td style="vertical-align:top;">:</td><td><div>Mozilla/5.0 (X11; Ubuntu; Linux x86_64; rv:46.0) Gecko/20100101 Firefox/46.0</div></td></tr><tr><td style="font-weight:bold;vertical-align:top;">PATH_INFO</td><td style="vertical-align:top;">:</td><td><div>/QuestionAnswer/default/show/28</div></td></tr><tr><td style="font-weight:bold;vertical-align:top;">QUERY_STRING</td><td style="vertical-align:top;">:</td><td><div></div></td></tr><tr><td style="font-weight:bold;vertical-align:top;">REMOTE_ADDR</td><td style="vertical-align:top;">:</td><td><div>127.0.0.1</div></td></tr><tr><td style="font-weight:bold;vertical-align:top;">REMOTE_PORT</td><td style="vertical-align:top;">:</td><td><div>48074</div></td></tr><tr><td style="font-weight:bold;vertical-align:top;">REQUEST_METHOD</td><td style="vertical-align:top;">:</td><td><div>GET</div></td></tr><tr><td style="font-weight:bold;vertical-align:top;">SCRIPT_NAME</td><td style="vertical-align:top;">:</td><td><div></div></td></tr><tr><td style="font-weight:bold;vertical-align:top;">SERVER_NAME</td><td style="vertical-align:top;">:</td><td><div>stayawesome</div></td></tr><tr><td style="font-weight:bold;vertical-align:top;">SERVER_PORT</td><td style="vertical-align:top;">:</td><td><div>8000</div></td></tr><tr><td style="font-weight:bold;vertical-align:top;">SERVER_PROTOCOL</td><td style="vertical-align:top;">:</td><td><div>HTTP/1.1</div></td></tr><tr><td style="font-weight:bold;vertical-align:top;">SERVER_SOFTWARE</td><td style="vertical-align:top;">:</td><td><div>Rocket 1.2.6</div></td></tr><tr><td style="font-weight:bold;vertical-align:top;">app_folders</td><td style="vertical-align:top;">:</td><td><div>set([&#x27;/home/sreya/Documents/iiit/itws2/web2py/applications/QuestionAnswer/&#x27;, &#x27;/home/sreya/Documents/iiit/itws2/web2py/applications/admin/&#x27;, &#x27;/home/sreya/Documents/iiit/itws2/web2py/applications/welcome/&#x27;])</div></td></tr><tr><td style="font-weight:bold;vertical-align:top;">applications_parent</td><td style="vertical-align:top;">:</td><td><div>/home/sreya/Documents/iiit/itws2/web2py</div></td></tr><tr><td style="font-weight:bold;vertical-align:top;">cmd_args</td><td style="vertical-align:top;">:</td><td><div><table></table></div></td></tr><tr><td style="font-weight:bold;vertical-align:top;">cmd_options</td><td style="vertical-align:top;">:</td><td><div>&lt;Values at 0x7f5e526ba170: {&#x27;verbose&#x27;: False, &#x27;ip&#x27;: &#x27;127.0.0.1&#x27;, &#x27;debuglevel&#x27;: 30, &#x27;with_scheduler&#x27;: False, &#x27;ips&#x27;: [], &#x27;shutdown_timeout&#x27;: 5, &#x27;taskbar&#x27;: False, &#x27;with_coverage&#x27;: False, &#x27;scheduler_groups&#x27;: None, &#x27;port&#x27;: 8000, &#x27;maxthreads&#x27;: None, &#x27;softcron&#x27;: False, &#x27;server_name&#x27;: &#x27;stayawesome&#x27;, &#x27;bpython&#x27;: False, &#x27;nogui&#x27;: True, &#x27;pid_filename&#x27;: &#x27;httpserver.pid&#x27;, &#x27;print_errors&#x27;: False, &#x27;extcron&#x27;: False, &#x27;runcron&#x27;: False, &#x27;run_system_tests&#x27;: False, &#x27;test&#x27;: None, &#x27;folder&#x27;: &#x27;/home/sreya/Documents/iiit/itws2/web2py&#x27;, &#x27;config&#x27;: &#x27;&#x27;, &#x27;minthreads&#x27;: None, &#x27;shell&#x27;: None, &#x27;run&#x27;: &#x27;&#x27;, &#x27;log_filename&#x27;: &#x27;httpserver.log&#x27;, &#x27;profiler_dir&#x27;: None, &#x27;args&#x27;: [&#x27;&#x27;], &#x27;socket_timeout&#x27;: 5, &#x27;ssl_ca_certificate&#x27;: None, &#x27;scheduler&#x27;: None, &#x27;interfaces&#x27;: None, &#x27;ssl_private_key&#x27;: &#x27;&#x27;, &#x27;gae&#x27;: None, &#x27;password&#x27;: &#x27;a&#x27;, &#x27;request_queue_size&#x27;: 5, &#x27;ssl_certificate&#x27;: &#x27;&#x27;, &#x27;cronjob&#x27;: False, &#x27;numthreads&#x27;: None, &#x27;quiet&#x27;: False, &#x27;import_models&#x27;: False, &#x27;timeout&#x27;: 10, &#x27;plain&#x27;: False, &#x27;nobanner&#x27;: False}&gt;</div></td></tr><tr><td style="font-weight:bold;vertical-align:top;">db_sessions</td><td style="vertical-align:top;">:</td><td><div>set([])</div></td></tr><tr><td style="font-weight:bold;vertical-align:top;">debugging</td><td style="vertical-align:top;">:</td><td><div>True</div></td></tr><tr><td style="font-weight:bold;vertical-align:top;">gluon_parent</td><td style="vertical-align:top;">:</td><td><div>/home/sreya/Documents/iiit/itws2/web2py</div></td></tr><tr><td style="font-weight:bold;vertical-align:top;">http_accept</td><td style="vertical-align:top;">:</td><td><div>text/html,application/xhtml+xml,application/xml;q=0.9,*/*;q=0.8</div></td></tr><tr><td style="font-weight:bold;vertical-align:top;">http_accept_encoding</td><td style="vertical-align:top;">:</td><td><div>gzip, deflate</div></td></tr><tr><td style="font-weight:bold;vertical-align:top;">http_accept_language</td><td style="vertical-align:top;">:</td><td><div>en-US,en;q=0.5</div></td></tr><tr><td style="font-weight:bold;vertical-align:top;">http_connection</td><td style="vertical-align:top;">:</td><td><div>keep-alive</div></td></tr><tr><td style="font-weight:bold;vertical-align:top;">http_cookie</td><td style="vertical-align:top;">:</td><td><div>session_id_projectbackup=127.0.0.1-050c6bca-884b-4cd5-8eba-85f1a31f5166; session_id_questionanswer=127.0.0.1-616ae64e-6658-421a-81cf-4db770a03bab; session_id_welcome=127.0.0.1-139ec4df-e7ad-4f9d-aee6-770045d17a03; session_id_admin=127.0.0.1-9508aa18-2d6e-4863-b182-75c0d84bbc93</div></td></tr><tr><td style="font-weight:bold;vertical-align:top;">http_host</td><td style="vertical-align:top;">:</td><td><div>127.0.0.1:8000</div></td></tr><tr><td style="font-weight:bold;vertical-align:top;">http_user_agent</td><td style="vertical-align:top;">:</td><td><div>Mozilla/5.0 (X11; Ubuntu; Linux x86_64; rv:46.0) Gecko/20100101 Firefox/46.0</div></td></tr><tr><td style="font-weight:bold;vertical-align:top;">is_jython</td><td style="vertical-align:top;">:</td><td><div>False</div></td></tr><tr><td style="font-weight:bold;vertical-align:top;">is_pypy</td><td style="vertical-align:top;">:</td><td><div>False</div></td></tr><tr><td style="font-weight:bold;vertical-align:top;">is_source</td><td style="vertical-align:top;">:</td><td><div>True</div></td></tr><tr><td style="font-weight:bold;vertical-align:top;">local_hosts</td><td style="vertical-align:top;">:</td><td><div><table><tr><td><div>::1</div></td></tr><tr><td><div>stayawesome</div></td></tr><tr><td><div>::ffff:127.0.0.1</div></td></tr><tr><td><div>127.0.0.1</div></td></tr></table></div></td></tr><tr><td style="font-weight:bold;vertical-align:top;">path_info</td><td style="vertical-align:top;">:</td><td><div>/QuestionAnswer/default/show/28</div></td></tr><tr><td style="font-weight:bold;vertical-align:top;">query_string</td><td style="vertical-align:top;">:</td><td><div></div></td></tr><tr><td style="font-weight:bold;vertical-align:top;">remote_addr</td><td style="vertical-align:top;">:</td><td><div>127.0.0.1</div></td></tr><tr><td style="font-weight:bold;vertical-align:top;">remote_port</td><td style="vertical-align:top;">:</td><td><div>48074</div></td></tr><tr><td style="font-weight:bold;vertical-align:top;">request_method</td><td style="vertical-align:top;">:</td><td><div>GET</div></td></tr><tr><td style="font-weight:bold;vertical-align:top;">request_uri</td><td style="vertical-align:top;">:</td><td><div>/QuestionAnswer/default/show/28</div></td></tr><tr><td style="font-weight:bold;vertical-align:top;">script_name</td><td style="vertical-align:top;">:</td><td><div></div></td></tr><tr><td style="font-weight:bold;vertical-align:top;">server_name</td><td style="vertical-align:top;">:</td><td><div>stayawesome</div></td></tr><tr><td style="font-weight:bold;vertical-align:top;">server_port</td><td style="vertical-align:top;">:</td><td><div>8000</div></td></tr><tr><td style="font-weight:bold;vertical-align:top;">server_protocol</td><td style="vertical-align:top;">:</td><td><div>HTTP/1.1</div></td></tr><tr><td style="font-weight:bold;vertical-align:top;">server_software</td><td style="vertical-align:top;">:</td><td><div>Rocket 1.2.6</div></td></tr><tr><td style="font-weight:bold;vertical-align:top;">web2py_path</td><td style="vertical-align:top;">:</td><td><div>/home/sreya/Documents/iiit/itws2/web2py</div></td></tr><tr><td style="font-weight:bold;vertical-align:top;">web2py_version</td><td style="vertical-align:top;">:</td><td><div>2.13.4-stable+timestamp.2015.12.26.04.59.39</div></td></tr><tr><td style="font-weight:bold;vertical-align:top;">wsgi.errors</td><td style="vertical-align:top;">:</td><td><div>&lt;open file &#x27;&lt;stderr&gt;&#x27;, mode &#x27;w&#x27; at 0x7f5e56c901e0&gt;</div></td></tr><tr><td style="font-weight:bold;vertical-align:top;">wsgi.file_wrapper</td><td style="vertical-align:top;">:</td><td><div>&lt;class wsgiref.util.FileWrapper at 0x7f5e52373188&gt;</div></td></tr><tr><td style="font-weight:bold;vertical-align:top;">wsgi.input</td><td style="vertical-align:top;">:</td><td><div>&lt;socket._fileobject object at 0x7f5e2276d9d0&gt;</div></td></tr><tr><td style="font-weight:bold;vertical-align:top;">wsgi.multiprocess</td><td style="vertical-align:top;">:</td><td><div>False</div></td></tr><tr><td style="font-weight:bold;vertical-align:top;">wsgi.multithread</td><td style="vertical-align:top;">:</td><td><div>True</div></td></tr><tr><td style="font-weight:bold;vertical-align:top;">wsgi.run_once</td><td style="vertical-align:top;">:</td><td><div>False</div></td></tr><tr><td style="font-weight:bold;vertical-align:top;">wsgi.url_scheme</td><td style="vertical-align:top;">:</td><td><div>http</div></td></tr><tr><td style="font-weight:bold;vertical-align:top;">wsgi.version</td><td style="vertical-align:top;">:</td><td><div><table><tr><td><div>1</div></td></tr><tr><td><div>0</div></td></tr></table></div></td></tr><tr><td style="font-weight:bold;vertical-align:top;">wsgi_errors</td><td style="vertical-align:top;">:</td><td><div>&lt;open file &#x27;&lt;stderr&gt;&#x27;, mode &#x27;w&#x27; at 0x7f5e56c901e0&gt;</div></td></tr><tr><td style="font-weight:bold;vertical-align:top;">wsgi_file_wrapper</td><td style="vertical-align:top;">:</td><td><div>&lt;class wsgiref.util.FileWrapper at 0x7f5e52373188&gt;</div></td></tr><tr><td style="font-weight:bold;vertical-align:top;">wsgi_input</td><td style="vertical-align:top;">:</td><td><div>&lt;socket._fileobject object at 0x7f5e2276d9d0&gt;</div></td></tr><tr><td style="font-weight:bold;vertical-align:top;">wsgi_multiprocess</td><td style="vertical-align:top;">:</td><td><div>False</div></td></tr><tr><td style="font-weight:bold;vertical-align:top;">wsgi_multithread</td><td style="vertical-align:top;">:</td><td><div>True</div></td></tr><tr><td style="font-weight:bold;vertical-align:top;">wsgi_run_once</td><td style="vertical-align:top;">:</td><td><div>False</div></td></tr><tr><td style="font-weight:bold;vertical-align:top;">wsgi_url_scheme</td><td style="vertical-align:top;">:</td><td><div>http</div></td></tr><tr><td style="font-weight:bold;vertical-align:top;">wsgi_version</td><td style="vertical-align:top;">:</td><td><div><table><tr><td><div>1</div></td></tr><tr><td><div>0</div></td></tr></table></div></td></tr></table></div></td></tr><tr><td style="font-weight:bold;vertical-align:top;">extension</td><td style="vertical-align:top;">:</td><td><div>html</div></td></tr><tr><td style="font-weight:bold;vertical-align:top;">folder</td><td style="vertical-align:top;">:</td><td><div>/home/sreya/Documents/iiit/itws2/web2py/applications/QuestionAnswer/</div></td></tr><tr><td style="font-weight:bold;vertical-align:top;">function</td><td style="vertical-align:top;">:</td><td><div>show</div></td></tr><tr><td style="font-weight:bold;vertical-align:top;">global_settings</td><td style="vertical-align:top;">:</td><td><div><table><tr><td style="font-weight:bold;vertical-align:top;">app_folders</td><td style="vertical-align:top;">:</td><td><div>set([&#x27;/home/sreya/Documents/iiit/itws2/web2py/applications/QuestionAnswer/&#x27;, &#x27;/home/sreya/Documents/iiit/itws2/web2py/applications/admin/&#x27;, &#x27;/home/sreya/Documents/iiit/itws2/web2py/applications/welcome/&#x27;])</div></td></tr><tr><td style="font-weight:bold;vertical-align:top;">applications_parent</td><td style="vertical-align:top;">:</td><td><div>/home/sreya/Documents/iiit/itws2/web2py</div></td></tr><tr><td style="font-weight:bold;vertical-align:top;">cmd_args</td><td style="vertical-align:top;">:</td><td><div><table></table></div></td></tr><tr><td style="font-weight:bold;vertical-align:top;">cmd_options</td><td style="vertical-align:top;">:</td><td><div>&lt;Values at 0x7f5e526ba170: {&#x27;verbose&#x27;: False, &#x27;ip&#x27;: &#x27;127.0.0.1&#x27;, &#x27;debuglevel&#x27;: 30, &#x27;with_scheduler&#x27;: False, &#x27;ips&#x27;: [], &#x27;shutdown_timeout&#x27;: 5, &#x27;taskbar&#x27;: False, &#x27;with_coverage&#x27;: False, &#x27;scheduler_groups&#x27;: None, &#x27;port&#x27;: 8000, &#x27;maxthreads&#x27;: None, &#x27;softcron&#x27;: False, &#x27;server_name&#x27;: &#x27;stayawesome&#x27;, &#x27;bpython&#x27;: False, &#x27;nogui&#x27;: True, &#x27;pid_filename&#x27;: &#x27;httpserver.pid&#x27;, &#x27;print_errors&#x27;: False, &#x27;extcron&#x27;: False, &#x27;runcron&#x27;: False, &#x27;run_system_tests&#x27;: False, &#x27;test&#x27;: None, &#x27;folder&#x27;: &#x27;/home/sreya/Documents/iiit/itws2/web2py&#x27;, &#x27;config&#x27;: &#x27;&#x27;, &#x27;minthreads&#x27;: None, &#x27;shell&#x27;: None, &#x27;run&#x27;: &#x27;&#x27;, &#x27;log_filename&#x27;: &#x27;httpserver.log&#x27;, &#x27;profiler_dir&#x27;: None, &#x27;args&#x27;: [&#x27;&#x27;], &#x27;socket_timeout&#x27;: 5, &#x27;ssl_ca_certificate&#x27;: None, &#x27;scheduler&#x27;: None, &#x27;interfaces&#x27;: None, &#x27;ssl_private_key&#x27;: &#x27;&#x27;, &#x27;gae&#x27;: None, &#x27;password&#x27;: &#x27;a&#x27;, &#x27;request_queue_size&#x27;: 5, &#x27;ssl_certificate&#x27;: &#x27;&#x27;, &#x27;cronjob&#x27;: False, &#x27;numthreads&#x27;: None, &#x27;quiet&#x27;: False, &#x27;import_models&#x27;: False, &#x27;timeout&#x27;: 10, &#x27;plain&#x27;: False, &#x27;nobanner&#x27;: False}&gt;</div></td></tr><tr><td style="font-weight:bold;vertical-align:top;">db_sessions</td><td style="vertical-align:top;">:</td><td><div>set([])</div></td></tr><tr><td style="font-weight:bold;vertical-align:top;">debugging</td><td style="vertical-align:top;">:</td><td><div>True</div></td></tr><tr><td style="font-weight:bold;vertical-align:top;">gluon_parent</td><td style="vertical-align:top;">:</td><td><div>/home/sreya/Documents/iiit/itws2/web2py</div></td></tr><tr><td style="font-weight:bold;vertical-align:top;">is_jython</td><td style="vertical-align:top;">:</td><td><div>False</div></td></tr><tr><td style="font-weight:bold;vertical-align:top;">is_pypy</td><td style="vertical-align:top;">:</td><td><div>False</div></td></tr><tr><td style="font-weight:bold;vertical-align:top;">is_source</td><td style="vertical-align:top;">:</td><td><div>True</div></td></tr><tr><td style="font-weight:bold;vertical-align:top;">local_hosts</td><td style="vertical-align:top;">:</td><td><div><table><tr><td><div>::1</div></td></tr><tr><td><div>stayawesome</div></td></tr><tr><td><div>::ffff:127.0.0.1</div></td></tr><tr><td><div>127.0.0.1</div></td></tr></table></div></td></tr><tr><td style="font-weight:bold;vertical-align:top;">web2py_version</td><td style="vertical-align:top;">:</td><td><div>2.13.4-stable+timestamp.2015.12.26.04.59.39</div></td></tr></table></div></td></tr><tr><td style="font-weight:bold;vertical-align:top;">is_https</td><td style="vertical-align:top;">:</td><td><div>False</div></td></tr><tr><td style="font-weight:bold;vertical-align:top;">is_local</td><td style="vertical-align:top;">:</td><td><div>True</div></td></tr><tr><td style="font-weight:bold;vertical-align:top;">is_restful</td><td style="vertical-align:top;">:</td><td><div>False</div></td></tr><tr><td style="font-weight:bold;vertical-align:top;">is_scheduler</td><td style="vertical-align:top;">:</td><td><div>False</div></td></tr><tr><td style="font-weight:bold;vertical-align:top;">is_shell</td><td style="vertical-align:top;">:</td><td><div>False</div></td></tr><tr><td style="font-weight:bold;vertical-align:top;">now</td><td style="vertical-align:top;">:</td><td><div>datetime.datetime(2016, 5, 1, 15, 26, 21, 54727)</div></td></tr><tr><td style="font-weight:bold;vertical-align:top;">raw_args</td><td style="vertical-align:top;">:</td><td><div>28</div></td></tr><tr><td style="font-weight:bold;vertical-align:top;">raw_extension</td><td style="vertical-align:top;">:</td><td><div>None</div></td></tr><tr><td style="font-weight:bold;vertical-align:top;">url</td><td style="vertical-align:top;">:</td><td><div>/QuestionAnswer/default/show/28</div></td></tr><tr><td style="font-weight:bold;vertical-align:top;">utcnow</td><td style="vertical-align:top;">:</td><td><div>datetime.datetime(2016, 5, 1, 9, 56, 21, 54771)</div></td></tr><tr><td style="font-weight:bold;vertical-align:top;">wsgi</td><td style="vertical-align:top;">:</td><td><div>&lt;gluon.main.LazyWSGI object at 0x7f5e22ecac50&gt;</div></td></tr></table></div>'
tRp57
sS'frames'
p58
(lp59
(dp60
S'file'
p61
S'/home/sreya/Documents/iiit/itws2/web2py/gluon/restricted.py'
p62
sS'dump'
p63
(dp64
S'environment'
p65
S"{'A': <class 'gluon.html.A'>, 'ANY_OF': <class 'gluon.validators.ANY_OF'>, 'ASSIGNJS': <function ASSIGNJS>, 'AppConfig': <function AppConfig>, 'Auth': <class 'gluon.tools.Auth'>, 'B': <class 'gluon.html.B'>, 'BEAUTIFY': <class 'gluon.html.BEAUTIFY'>, 'BODY': <class 'gluon.html.BODY'>, 'BR': <class 'gluon.html.BR'>, 'BUTTON': <class 'gluon.html.BUTTON'>, ...}"
p66
sS'ccode'
p67
S'<code object <module> at 0x7f5e52742430, file "/.../QuestionAnswer/views/default/show.html", line 1>'
p68
ssS'lnum'
p69
I227
sS'lines'
p70
(dp71
I224
S'            ccode = code'
p72
sI225
S'        else:'
p73
sI226
S'            ccode = compile2(code, layer)'
p74
sI227
S'        exec ccode in environment'
p75
sI228
S'    except HTTP:'
p76
sI229
S'        raise'
p77
sI230
S'    except RestrictedError:'
p78
sI231
S'        # do not encapsulate (obfuscate) the original RestrictedError'
p79
sI222
S'    try:'
p80
sI223
S'        if isinstance(code, types.CodeType):'
p81
ssS'call'
p82
S'(code=\'response.write(\\\'<!DOCTYPE html>\\\\n<!--[if (gt IE ..."></script>\\\\n  </body>\\\\n</html>\\\\n\\\', escape=False)\', environment={\'A\': <class \'gluon.html.A\'>, \'ANY_OF\': <class \'gluon.validators.ANY_OF\'>, \'ASSIGNJS\': <function ASSIGNJS>, \'AppConfig\': <function AppConfig>, \'Auth\': <class \'gluon.tools.Auth\'>, \'B\': <class \'gluon.html.B\'>, \'BEAUTIFY\': <class \'gluon.html.BEAUTIFY\'>, \'BODY\': <class \'gluon.html.BODY\'>, \'BR\': <class \'gluon.html.BR\'>, \'BUTTON\': <class \'gluon.html.BUTTON\'>, ...}, layer=\'/home/sreya/Documents/iiit/itws2/web2py/applications/QuestionAnswer/views/default/show.html\')'
p83
sS'func'
p84
S'restricted'
p85
sa(dp86
g61
S'/home/sreya/Documents/iiit/itws2/web2py/applications/QuestionAnswer/views/default/show.html'
p87
sg63
(dp88
S'width'
p89
S'undefined'
p90
ssg69
I127
sg70
(dp91
I128
S'                    response.write(\'\\n                                    <img style="width:20px" src="../../static/images/gold.jpeg"/>\\n                                \', escape=False)'
p92
sI129
S'                elif users.badge=="Silver":'
p93
sI130
S'                    response.write(\'\\n                                    <img style="width:20px" src="../../static/images/silver.jpeg"/>\\n                                \', escape=False)'
p94
sI131
S'                elif users.badge=="Bronze":'
p95
sI132
S'                    response.write(\'\\n                                    <img style="width:20px" src="../../static/images/bronze.jpeg"/>\\n                                \', escape=False)'
p96
sI133
S'                else:'
p97
sI134
S'                    response.write(\'\\n                                    <img style="width:20px" src="../../static/images/newbie.jpeg"/>\\n                                \', escape=False)'
p98
sI135
S'                    pass'
p99
sI136
S"                response.write('\\n                                ', escape=False)"
p100
sI137
S'                pass'
p101
sI118
S'    response.write(\'\\n<div class="comments-container">\\n        <h1>Answers</h1>\\n        <ul id="comments-list" class="comments-list">\\n                      \', escape=False)'
p102
sI119
S'    for posts in commentss:'
p103
sI120
S'        response.write(\'\\n            <li>\\n                <div class="comment-main-level">\\n                    <!-- Avatar -->\\n                    <div class="comment-avatar"><img src="https://upload.wikimedia.org/wikipedia/en/e/ee/Unknown-person.gif" alt=""></div>\\n                    <!-- Contenedor del Comentario -->\\n                    <div class="comment-box">\\n                        <div class="comment-head">\\n                            <h6 class="comment-name">\', escape=False)'
p104
sI121
S'        response.write(posts.author)'
p105
sI122
S"        response.write(' \\n                               ', escape=False)"
p106
sI123
S'        for users in commentors:'
p107
sI124
S"            response.write('\\n                                ', escape=False)"
p108
sI125
S'            if posts.email==users.email:'
p109
sI126
S"                response.write('\\n                                ', escape=False)"
p110
sI127
S'                if users.badge=="Gold":'
p111
ssg82
S'()'
p112
sg84
S'<module>'
p113
sa(dp114
g61
S'/home/sreya/Documents/iiit/itws2/web2py/gluon/packages/dal/pydal/objects.py'
p115
sg63
(dp116
S'builtinAttributeError'
p117
S"<type 'exceptions.AttributeError'>"
p118
ssg69
I90
sg70
(dp119
I85
S''
sI86
S'    def __getattr__(self, k):'
p120
sI87
S'        try:'
p121
sI88
S'            return self.__getitem__(k)'
p122
sI89
S'        except KeyError:'
p123
sI90
S'            raise AttributeError'
p124
sI91
S''
sI92
S'    def __copy__(self):'
p125
sI93
S'        return Row(self)'
p126
sI94
S''
ssg82
S"(self=<Row {'body': 'ahahaha', 'author': 'Sreya', 'tim...l': 'sreya.mittal@yahoo.in', 'question_id': 28L}>, k='badge')"
p127
sg84
S'__getattr__'
p128
sasS'pyver'
p129
S'Python 2.7.10: /usr/bin/python (prefix: /usr)'
p130
sS'session'
p131
g56
(S'su\t\x00\x00<div><table><tr><td style="font-weight:bold;vertical-align:top;">auth</td><td style="vertical-align:top;">:</td><td><div><table><tr><td style="font-weight:bold;vertical-align:top;">expiration</td><td style="vertical-align:top;">:</td><td><div>3600</div></td></tr><tr><td style="font-weight:bold;vertical-align:top;">hmac_key</td><td style="vertical-align:top;">:</td><td><div>fe0353c2-8c34-4946-aadd-f50d6f590a53</div></td></tr><tr><td style="font-weight:bold;vertical-align:top;">last_visit</td><td style="vertical-align:top;">:</td><td><div>datetime.datetime(2016, 5, 1, 15, 20, 30, 210747)</div></td></tr><tr><td style="font-weight:bold;vertical-align:top;">remember_me</td><td style="vertical-align:top;">:</td><td><div>False</div></td></tr><tr><td style="font-weight:bold;vertical-align:top;">user</td><td style="vertical-align:top;">:</td><td><div><table><tr><td style="font-weight:bold;vertical-align:top;">email</td><td style="vertical-align:top;">:</td><td><div>sreyamittal5@gmail.com</div></td></tr><tr><td style="font-weight:bold;vertical-align:top;">first_name</td><td style="vertical-align:top;">:</td><td><div>Sreya</div></td></tr><tr><td style="font-weight:bold;vertical-align:top;">id</td><td style="vertical-align:top;">:</td><td><div>7L</div></td></tr><tr><td style="font-weight:bold;vertical-align:top;">last_name</td><td style="vertical-align:top;">:</td><td><div>Mittal</div></td></tr><tr><td style="font-weight:bold;vertical-align:top;">phone</td><td style="vertical-align:top;">:</td><td><div>9000119922</div></td></tr><tr><td style="font-weight:bold;vertical-align:top;">registration_id</td><td style="vertical-align:top;">:</td><td><div></div></td></tr><tr><td style="font-weight:bold;vertical-align:top;">registration_key</td><td style="vertical-align:top;">:</td><td><div></div></td></tr><tr><td style="font-weight:bold;vertical-align:top;">reset_password_key</td><td style="vertical-align:top;">:</td><td><div></div></td></tr></table></div></td></tr><tr><td style="font-weight:bold;vertical-align:top;">user_groups</td><td style="vertical-align:top;">:</td><td><div><table><tr><td style="font-weight:bold;vertical-align:top;">7</td><td style="vertical-align:top;">:</td><td><div>user_7</div></td></tr></table></div></td></tr></table></div></td></tr><tr><td style="font-weight:bold;vertical-align:top;">flash</td><td style="vertical-align:top;">:</td><td><div>None</div></td></tr></table></div>'
tRp132
sS'etype'
p133
S"<type 'exceptions.AttributeError'>"
p134
sS'date'
p135
S'Sun May  1 15:26:21 2016'
p136
sS'response'
p137
g56
(S's\x11%\x00\x00<div><table><tr><td style="font-weight:bold;vertical-align:top;">body</td><td style="vertical-align:top;">:</td><td><div>&lt;cStringIO.StringO object at 0x7f5e22efeed8&gt;</div></td></tr><tr><td style="font-weight:bold;vertical-align:top;">cookies</td><td style="vertical-align:top;">:</td><td><div><table><tr><td style="font-weight:bold;vertical-align:top;">session_id_questionanswer</td><td style="vertical-align:top;">:</td><td><div>127.0.0.1-616ae64e-6658-421a-81cf-4db770a03bab<table><tr><td style="font-weight:bold;vertical-align:top;">comment</td><td style="vertical-align:top;">:</td><td><div></div></td></tr><tr><td style="font-weight:bold;vertical-align:top;">domain</td><td style="vertical-align:top;">:</td><td><div></div></td></tr><tr><td style="font-weight:bold;vertical-align:top;">expires</td><td style="vertical-align:top;">:</td><td><div></div></td></tr><tr><td style="font-weight:bold;vertical-align:top;">httponly</td><td style="vertical-align:top;">:</td><td><div></div></td></tr><tr><td style="font-weight:bold;vertical-align:top;">max-age</td><td style="vertical-align:top;">:</td><td><div></div></td></tr><tr><td style="font-weight:bold;vertical-align:top;">path</td><td style="vertical-align:top;">:</td><td><div>/</div></td></tr><tr><td style="font-weight:bold;vertical-align:top;">secure</td><td style="vertical-align:top;">:</td><td><div></div></td></tr><tr><td style="font-weight:bold;vertical-align:top;">version</td><td style="vertical-align:top;">:</td><td><div></div></td></tr></table></div></td></tr></table></div></td></tr><tr><td style="font-weight:bold;vertical-align:top;">delimiters</td><td style="vertical-align:top;">:</td><td><div><table><tr><td><div>{{</div></td></tr><tr><td><div>}}</div></td></tr></table></div></td></tr><tr><td style="font-weight:bold;vertical-align:top;">files</td><td style="vertical-align:top;">:</td><td><div><table><tr><td><div>/QuestionAnswer/static/js/jquery.js</div></td></tr><tr><td><div>/QuestionAnswer/static/css/calendar.css</div></td></tr><tr><td><div>/QuestionAnswer/static/js/calendar.js</div></td></tr><tr><td><div>/QuestionAnswer/static/js/web2py.js</div></td></tr></table></div></td></tr><tr><td style="font-weight:bold;vertical-align:top;">flash</td><td style="vertical-align:top;">:</td><td><div></div></td></tr><tr><td style="font-weight:bold;vertical-align:top;">form_label_separator</td><td style="vertical-align:top;">:</td><td><div></div></td></tr><tr><td style="font-weight:bold;vertical-align:top;">formstyle</td><td style="vertical-align:top;">:</td><td><div>bootstrap3_inline</div></td></tr><tr><td style="font-weight:bold;vertical-align:top;">generic_patterns</td><td style="vertical-align:top;">:</td><td><div><table><tr><td><div>*</div></td></tr></table></div></td></tr><tr><td style="font-weight:bold;vertical-align:top;">google_analytics_id</td><td style="vertical-align:top;">:</td><td><div>None</div></td></tr><tr><td style="font-weight:bold;vertical-align:top;">headers</td><td style="vertical-align:top;">:</td><td><div><table><tr><td style="font-weight:bold;vertical-align:top;">X-Powered-By</td><td style="vertical-align:top;">:</td><td><div>web2py</div></td></tr></table></div></td></tr><tr><td style="font-weight:bold;vertical-align:top;">logo</td><td style="vertical-align:top;">:</td><td><div><a class="navbar-brand" href="http://127.0.0.1:8000/QuestionAnswer/default/index" id="web2py-logo"><b>Ask&amp;Answer</b>&trade;&nbsp;</a></div></td></tr><tr><td style="font-weight:bold;vertical-align:top;">menu</td><td style="vertical-align:top;">:</td><td><div><table><tr><td><div><table><tr><td><div>Ask</div></td></tr><tr><td><div>False</div></td></tr><tr><td><div>/QuestionAnswer/default/uploadpage</div></td></tr><tr><td><div><table></table></div></td></tr></table></div></td></tr><tr><td><div><table><tr><td><div>Browse</div></td></tr><tr><td><div>False</div></td></tr><tr><td><div>None</div></td></tr><tr><td><div><table><tr><td><div><table><tr><td><div>Questions</div></td></tr><tr><td><div>False</div></td></tr><tr><td><div>/QuestionAnswer/default/homepage</div></td></tr><tr><td><div>[]</div></td></tr></table></div></td></tr><tr><td><div><table><tr><td><div>My Questions</div></td></tr><tr><td><div>False</div></td></tr><tr><td><div>/QuestionAnswer/default/myquestions</div></td></tr><tr><td><div>[]</div></td></tr></table></div></td></tr><tr><td><div><table><tr><td><div>My Starred Questions</div></td></tr><tr><td><div>False</div></td></tr><tr><td><div>/QuestionAnswer/default/mystarredquestions</div></td></tr><tr><td><div>[]</div></td></tr></table></div></td></tr></table></div></td></tr></table></div></td></tr><tr><td><div><table><tr><td><div>Search</div></td></tr><tr><td><div>False</div></td></tr><tr><td><div>/QuestionAnswer/default/search</div></td></tr><tr><td><div><table></table></div></td></tr></table></div></td></tr><tr><td><div><table><tr><td><div>Manage Questions</div></td></tr><tr><td><div>False</div></td></tr><tr><td><div>/QuestionAnswer/default/managequestions</div></td></tr><tr><td><div><table></table></div></td></tr></table></div></td></tr><tr><td><div><table><tr><td><div>Manage Users</div></td></tr><tr><td><div>False</div></td></tr><tr><td><div>/QuestionAnswer/default/manage</div></td></tr><tr><td><div><table></table></div></td></tr></table></div></td></tr></table></div></td></tr><tr><td style="font-weight:bold;vertical-align:top;">meta</td><td style="vertical-align:top;">:</td><td><div><table><tr><td style="font-weight:bold;vertical-align:top;">author</td><td style="vertical-align:top;">:</td><td><div>Your Name &lt;you@example.com&gt;</div></td></tr><tr><td style="font-weight:bold;vertical-align:top;">description</td><td style="vertical-align:top;">:</td><td><div>a cool new app</div></td></tr><tr><td style="font-weight:bold;vertical-align:top;">generator</td><td style="vertical-align:top;">:</td><td><div>Web2py Web Framework</div></td></tr><tr><td style="font-weight:bold;vertical-align:top;">keywords</td><td style="vertical-align:top;">:</td><td><div>web2py, python, framework</div></td></tr></table></div></td></tr><tr><td style="font-weight:bold;vertical-align:top;">models_to_run</td><td style="vertical-align:top;">:</td><td><div><table><tr><td><div>^\\w+\\.py$</div></td></tr><tr><td><div>^default/\\w+\\.py$</div></td></tr><tr><td><div>^default/show/\\w+\\.py$</div></td></tr></table></div></td></tr><tr><td style="font-weight:bold;vertical-align:top;">postprocessing</td><td style="vertical-align:top;">:</td><td><div><table></table></div></td></tr><tr><td style="font-weight:bold;vertical-align:top;">session_client</td><td style="vertical-align:top;">:</td><td><div>127.0.0.1</div></td></tr><tr><td style="font-weight:bold;vertical-align:top;">session_cookie_compression_level</td><td style="vertical-align:top;">:</td><td><div>None</div></td></tr><tr><td style="font-weight:bold;vertical-align:top;">session_cookie_expires</td><td style="vertical-align:top;">:</td><td><div>None</div></td></tr><tr><td style="font-weight:bold;vertical-align:top;">session_cookie_key</td><td style="vertical-align:top;">:</td><td><div>None</div></td></tr><tr><td style="font-weight:bold;vertical-align:top;">session_data_name</td><td style="vertical-align:top;">:</td><td><div>session_data_questionanswer</div></td></tr><tr><td style="font-weight:bold;vertical-align:top;">session_file</td><td style="vertical-align:top;">:</td><td><div>&lt;open file &#x27;/home/sreya/Documents/iiit/itws2/web2py/applications/QuestionAnswer/sessions/0f5/11d/127.0.0.1-616ae64e-6658-421a-81cf-4db770a03bab&#x27;, mode &#x27;rb+&#x27; at 0x7f5e403c5150&gt;</div></td></tr><tr><td style="font-weight:bold;vertical-align:top;">session_filename</td><td style="vertical-align:top;">:</td><td><div>/home/sreya/Documents/iiit/itws2/web2py/applications/QuestionAnswer/sessions/127.0.0.1-616ae64e-6658-421a-81cf-4db770a03bab</div></td></tr><tr><td style="font-weight:bold;vertical-align:top;">session_hash</td><td style="vertical-align:top;">:</td><td><div>fb5d6bb9f3a0391c36127f884325ac7f</div></td></tr><tr><td style="font-weight:bold;vertical-align:top;">session_id</td><td style="vertical-align:top;">:</td><td><div>127.0.0.1-616ae64e-6658-421a-81cf-4db770a03bab</div></td></tr><tr><td style="font-weight:bold;vertical-align:top;">session_id_name</td><td style="vertical-align:top;">:</td><td><div>session_id_questionanswer</div></td></tr><tr><td style="font-weight:bold;vertical-align:top;">session_locked</td><td style="vertical-align:top;">:</td><td><div>True</div></td></tr><tr><td style="font-weight:bold;vertical-align:top;">session_masterapp</td><td style="vertical-align:top;">:</td><td><div>QuestionAnswer</div></td></tr><tr><td style="font-weight:bold;vertical-align:top;">session_new</td><td style="vertical-align:top;">:</td><td><div>False</div></td></tr><tr><td style="font-weight:bold;vertical-align:top;">session_storage_type</td><td style="vertical-align:top;">:</td><td><div>file</div></td></tr><tr><td style="font-weight:bold;vertical-align:top;">status</td><td style="vertical-align:top;">:</td><td><div>200</div></td></tr><tr><td style="font-weight:bold;vertical-align:top;">subtitle</td><td style="vertical-align:top;">:</td><td><div></div></td></tr><tr><td style="font-weight:bold;vertical-align:top;">title</td><td style="vertical-align:top;">:</td><td><div>Questionanswer</div></td></tr><tr><td style="font-weight:bold;vertical-align:top;">view</td><td style="vertical-align:top;">:</td><td><div>default/show.html</div></td></tr></table></div>'
tRp138
sS'locals'
p139
(dp140
S'k'
S"'badge'"
p141
sS'self'
p142
S"<Row {'body': 'ahahaha', 'author': 'Sreya', 'tim...l': 'sreya.mittal@yahoo.in', 'question_id': 28L}>"
p143
sssS'traceback'
p144
S'Traceback (most recent call last):\n  File "/home/sreya/Documents/iiit/itws2/web2py/gluon/restricted.py", line 227, in restricted\n    exec ccode in environment\n  File "/home/sreya/Documents/iiit/itws2/web2py/applications/QuestionAnswer/views/default/show.html", line 127, in <module>\n    width: 0;\n  File "/home/sreya/Documents/iiit/itws2/web2py/gluon/packages/dal/pydal/objects.py", line 90, in __getattr__\n    raise AttributeError\nAttributeError\n'
p145
s.