(dp1
S'output'
p2
S"<class 'sqlite3.OperationalError'> no such column: db.post.timestamp"
p3
sS'layer'
p4
S'/home/sreya/Documents/iiit/itws2/web2py/applications/Cooking/controllers/default.py'
p5
sS'code'
p6
S'# -*- coding: utf-8 -*-\n# this file is released under public domain and you can use without limitations\n\n#########################################################################\n## This is a sample controller\n## - index is the default action of any application\n## - user is required for authentication and authorization\n## - download is for downloading files uploaded in the db (does streaming)\n#########################################################################\n\ndef index():\n    """\n    example action using the internationalization operator T and flash\n    rendered by views/default/index.html or views/generic.html\n\n    if you need a simple wiki simply replace the two lines below with:\n    return auth.wiki()\n    """\n    response.flash = T("Hello World")\n    return dict(message=T(\'Welcome to web2py!\'))\n\n@auth.requires_login()\ndef homepage():\n    images = db().select(db.post.ALL, orderby="db.post.timestamp DESC")\n    return dict(images=images)\n\n\ndef uploadpage():\n    form=SQLFORM(db.post).process()\n    return dict(form=form)\n\ndef user():\n    """\n    exposes:\n    http://..../[app]/default/user/login\n    http://..../[app]/default/user/logout\n    http://..../[app]/default/user/register\n    http://..../[app]/default/user/profile\n    http://..../[app]/default/user/retrieve_password\n    http://..../[app]/default/user/change_password\n    http://..../[app]/default/user/bulk_register\n    use @auth.requires_login()\n        @auth.requires_membership(\'group name\')\n        @auth.requires_permission(\'read\',\'table name\',record_id)\n    to decorate functions that need access control\n    also notice there is http://..../[app]/appadmin/manage/auth to allow administrator to manage users\n    """\n    return dict(form=auth())\n\n\n@cache.action()\ndef download():\n    """\n    allows downloading of uploaded files\n    http://..../[app]/default/download/[filename]\n    """\n    return response.download(request, db)\n\n\ndef call():\n    """\n    exposes services. for example:\n    http://..../[app]/default/call/jsonrpc\n    decorate with @services.jsonrpc the functions to expose\n    supports xml, json, xmlrpc, jsonrpc, amfrpc, rss, csv\n    """\n    return service()\n\nresponse._vars=response._caller(homepage)\n'
p7
sS'snapshot'
p8
(dp9
sS'traceback'
p10
S'Traceback (most recent call last):\n  File "/home/sreya/Documents/iiit/itws2/web2py/gluon/restricted.py", line 227, in restricted\n    exec ccode in environment\n  File "/home/sreya/Documents/iiit/itws2/web2py/applications/Cooking/controllers/default.py", line 69, in <module>\n  File "/home/sreya/Documents/iiit/itws2/web2py/gluon/globals.py", line 412, in <lambda>\n    self._caller = lambda f: f()\n  File "/home/sreya/Documents/iiit/itws2/web2py/gluon/tools.py", line 4236, in f\n    return action(*a, **b)\n  File "/home/sreya/Documents/iiit/itws2/web2py/applications/Cooking/controllers/default.py", line 24, in homepage\n    images = db().select(db.post.ALL, orderby="db.post.timestamp DESC")\n  File "/home/sreya/Documents/iiit/itws2/web2py/gluon/packages/dal/pydal/objects.py", line 2025, in select\n    return adapter.select(self.query,fields,attributes)\n  File "/home/sreya/Documents/iiit/itws2/web2py/gluon/packages/dal/pydal/adapters/sqlite.py", line 124, in select\n    return super(SQLiteAdapter, self).select(query, fields, attributes)\n  File "/home/sreya/Documents/iiit/itws2/web2py/gluon/packages/dal/pydal/adapters/base.py", line 1293, in select\n    return self._select_aux(sql,fields,attributes)\n  File "/home/sreya/Documents/iiit/itws2/web2py/gluon/packages/dal/pydal/adapters/base.py", line 1250, in _select_aux\n    self.execute(sql)\n  File "/home/sreya/Documents/iiit/itws2/web2py/gluon/packages/dal/pydal/adapters/base.py", line 1385, in execute\n    return self.log_execute(*a, **b)\n  File "/home/sreya/Documents/iiit/itws2/web2py/gluon/packages/dal/pydal/adapters/base.py", line 1379, in log_execute\n    ret = self.get_cursor().execute(command, *a[1:], **b)\nOperationalError: no such column: db.post.timestamp\n'
p11
s.